---
triple:          'arm64-apple-darwin'
binary-path:     main
relocations:
  - { offset: 0x1A772, size: 0x8, addend: 0x0, symName: __Z7toupperi, symObjAddr: 0x0, symBinAddr: 0x100000B00, symSize: 0x1C }
  - { offset: 0x1B481, size: 0x8, addend: 0x0, symName: __ZStL8__ioinit, symObjAddr: 0xD9BE8, symBinAddr: 0x100038000, symSize: 0x0 }
  - { offset: 0x1B69E, size: 0x8, addend: 0x0, symName: __ZNSt8__detail31__from_chars_alnum_to_val_tableILb0EE5valueE, symObjAddr: 0x19A28, symBinAddr: 0x100024568, symSize: 0x0 }
  - { offset: 0x1C1E8, size: 0x8, addend: 0x0, symName: __ZNSt8__format14_Fixedbuf_sinkIcE11_M_overflowEv, symObjAddr: 0x15600, symBinAddr: 0x100016100, symSize: 0x2C }
  - { offset: 0x1C245, size: 0x8, addend: 0x0, symName: __ZNSt5arrayIcLm4EEixEm, symObjAddr: 0x15594, symBinAddr: 0x100016094, symSize: 0x6C }
  - { offset: 0x1C2BB, size: 0x8, addend: 0x0, symName: __ZSt9bit_widthITkSt18__unsigned_integerjEiT_, symObjAddr: 0x15578, symBinAddr: 0x100016078, symSize: 0x1C }
  - { offset: 0x1C2EE, size: 0x8, addend: 0x0, symName: __ZSt13__countl_zeroIoEiT_, symObjAddr: 0x1551C, symBinAddr: 0x10001601C, symSize: 0x5C }
  - { offset: 0x1C358, size: 0x8, addend: 0x0, symName: __ZNKSt5arrayIcLm4EEixEm, symObjAddr: 0x154B0, symBinAddr: 0x100015FB0, symSize: 0x6C }
  - { offset: 0x1C3D2, size: 0x8, addend: 0x0, symName: __ZNSt9__unicode13_Utf_iteratorIDicPKDiS2_NS_5_ReplEE9_M_updateEDih, symObjAddr: 0x151B8, symBinAddr: 0x100015CB8, symSize: 0x2F8 }
  - { offset: 0x1C436, size: 0x8, addend: 0x0, symName: __ZNSt9__unicode13_Utf_iteratorIDicPKDiS2_NS_5_ReplEE8_S_errorEv, symObjAddr: 0x15148, symBinAddr: 0x100015C48, symSize: 0x70 }
  - { offset: 0x1C4A8, size: 0x8, addend: 0x0, symName: __ZNSt9__unicode13_Utf_iteratorIDicPKDiS2_NS_5_ReplEE6_GuardIS2_ED1Ev, symObjAddr: 0x15104, symBinAddr: 0x100015C04, symSize: 0x44 }
  - { offset: 0x1C4F2, size: 0x8, addend: 0x0, symName: __ZNKSt9__unicode9__v16_0_022_Grapheme_cluster_viewISt17basic_string_viewIcSt11char_traitsIcEEE9_Iterator11_M_is_breakENS0_13_Gcb_propertyES8_NS_13_Utf_iteratorIcDiPKcSB_NS_5_ReplEEE, symObjAddr: 0x14D50, symBinAddr: 0x100015850, symSize: 0x3B4 }
  - { offset: 0x1C598, size: 0x8, addend: 0x0, symName: __ZNSt9__unicodeeqENS_13_Utf_iteratorIcDiPKcS2_NS_5_ReplEEES2_, symObjAddr: 0x14D14, symBinAddr: 0x100015814, symSize: 0x3C }
  - { offset: 0x1C5FD, size: 0x8, addend: 0x0, symName: __ZNSt9__unicode9__v16_0_022_Grapheme_cluster_viewISt17basic_string_viewIcSt11char_traitsIcEEE9_IteratorC1ENS_13_Utf_iteratorIcDiPKcSA_NS_5_ReplEEE, symObjAddr: 0x14C4C, symBinAddr: 0x10001574C, symSize: 0xC8 }
  - { offset: 0x1C628, size: 0x8, addend: 0x0, symName: __ZNSt8__detail18__to_chars_10_implIoEEvPcjT_, symObjAddr: 0x14A18, symBinAddr: 0x100015518, symSize: 0x234 }
  - { offset: 0x1C6F2, size: 0x8, addend: 0x0, symName: __ZSt11__bit_widthIoEiT_, symObjAddr: 0x149E8, symBinAddr: 0x1000154E8, symSize: 0x30 }
  - { offset: 0x1C799, size: 0x8, addend: 0x0, symName: __ZNSt9__unicode9__v16_0_031_Grapheme_cluster_iterator_baseC2Ev, symObjAddr: 0x149BC, symBinAddr: 0x1000154BC, symSize: 0x2C }
  - { offset: 0x1C805, size: 0x8, addend: 0x0, symName: __ZNSt17basic_string_viewIcSt11char_traitsIcEEC1IPcS4_EET_T0_, symObjAddr: 0x14974, symBinAddr: 0x100015474, symSize: 0x48 }
  - { offset: 0x1C8B6, size: 0x8, addend: 0x0, symName: __ZNSt9__unicode13_Utf_iteratorIDicPKDiS2_NS_5_ReplEEppEv, symObjAddr: 0x14848, symBinAddr: 0x100015348, symSize: 0x12C }
  - { offset: 0x1C938, size: 0x8, addend: 0x0, symName: __ZNKSt9__unicode13_Utf_iteratorIDicPKDiS2_NS_5_ReplEEdeEv, symObjAddr: 0x14814, symBinAddr: 0x100015314, symSize: 0x34 }
  - { offset: 0x1C95E, size: 0x8, addend: 0x0, symName: __ZNSt9__unicode13_Utf_iteratorIDicPKDiS2_NS_5_ReplEEFeqES4_S4_Qoo16forward_iteratorIT1_ErQS5__Xnefp_fp_E, symObjAddr: 0x147B0, symBinAddr: 0x1000152B0, symSize: 0x64 }
  - { offset: 0x1C99B, size: 0x8, addend: 0x0, symName: __ZNSt9__unicode13_Utf_iteratorIDicPKDiS2_NS_5_ReplEE13_M_read_utf32Ev, symObjAddr: 0x14724, symBinAddr: 0x100015224, symSize: 0x8C }
  - { offset: 0x1C9E7, size: 0x8, addend: 0x0, symName: __ZNKSt9__unicode9__v16_0_022_Grapheme_cluster_viewISt17basic_string_viewIcSt11char_traitsIcEEE9_IteratoreqERKPKc, symObjAddr: 0x146D4, symBinAddr: 0x1000151D4, symSize: 0x50 }
  - { offset: 0x1CA22, size: 0x8, addend: 0x0, symName: __ZNSt9__unicode9__v16_0_022_Grapheme_cluster_viewISt17basic_string_viewIcSt11char_traitsIcEEE9_IteratorppEv, symObjAddr: 0x1451C, symBinAddr: 0x10001501C, symSize: 0x1B8 }
  - { offset: 0x1CAC8, size: 0x8, addend: 0x0, symName: __ZNKSt9__unicode13_Utf_iteratorIcDiPKcS2_NS_5_ReplEE3endEv, symObjAddr: 0x14504, symBinAddr: 0x100015004, symSize: 0x18 }
  - { offset: 0x1CB1A, size: 0x8, addend: 0x0, symName: __ZNSt9__unicode9__v16_0_022_Grapheme_cluster_viewISt17basic_string_viewIcSt11char_traitsIcEEEC1ES5_, symObjAddr: 0x14490, symBinAddr: 0x100014F90, symSize: 0x74 }
  - { offset: 0x1CBDC, size: 0x8, addend: 0x0, symName: __ZNSt8__format18__write_escape_seqINS_10_Sink_iterIcEEcEET_S3_jSt17basic_string_viewIT0_St11char_traitsIS5_EE, symObjAddr: 0x1438C, symBinAddr: 0x100014E8C, symSize: 0x104 }
  - { offset: 0x1CD2F, size: 0x8, addend: 0x0, symName: __ZNSt8__format20__write_escaped_charINS_10_Sink_iterIcEEcEET_S3_T0_, symObjAddr: 0x141A4, symBinAddr: 0x100014CA4, symSize: 0x1E8 }
  - { offset: 0x1CD8B, size: 0x8, addend: 0x0, symName: __ZNSt8__format21__should_escape_asciiIcEEbT_NS_10_Term_charE, symObjAddr: 0x140D8, symBinAddr: 0x100014BD8, symSize: 0xCC }
  - { offset: 0x1CDCF, size: 0x8, addend: 0x0, symName: __ZNSt9__unicode13_Utf_iteratorIcDiPKcS2_NS_5_ReplEEFeqES4_S4_Qoo16forward_iteratorIT1_ErQS5__Xnefp_fp_E, symObjAddr: 0x14074, symBinAddr: 0x100014B74, symSize: 0x64 }
  - { offset: 0x1CE26, size: 0x8, addend: 0x0, symName: __ZNSt8__detail10__to_charsIoEESt15to_chars_resultPcS2_T_i, symObjAddr: 0x13ED0, symBinAddr: 0x1000149D0, symSize: 0x1A4 }
  - { offset: 0x1CF0E, size: 0x8, addend: 0x0, symName: __ZNSt8__detail12__to_chars_2IoEESt15to_chars_resultPcS2_T_, symObjAddr: 0x13DBC, symBinAddr: 0x1000148BC, symSize: 0x114 }
  - { offset: 0x1CF96, size: 0x8, addend: 0x0, symName: __ZNSt8__detail12__to_chars_8IoEESt15to_chars_resultPcS2_T_, symObjAddr: 0x13B28, symBinAddr: 0x100014628, symSize: 0x294 }
  - { offset: 0x1D064, size: 0x8, addend: 0x0, symName: __ZNSt8__detail13__to_chars_10IoEESt15to_chars_resultPcS2_T_, symObjAddr: 0x13A90, symBinAddr: 0x100014590, symSize: 0x98 }
  - { offset: 0x1D0D6, size: 0x8, addend: 0x0, symName: __ZNSt8__detail14__to_chars_lenIoEEjT_i, symObjAddr: 0x138FC, symBinAddr: 0x1000143FC, symSize: 0x194 }
  - { offset: 0x1D158, size: 0x8, addend: 0x0, symName: __ZNSt8__detail13__to_chars_16IoEESt15to_chars_resultPcS2_T_, symObjAddr: 0x13680, symBinAddr: 0x100014180, symSize: 0x27C }
  - { offset: 0x1D242, size: 0x8, addend: 0x0, symName: __ZNSt8__detail16__to_chars_len_2IoEEjT_, symObjAddr: 0x13664, symBinAddr: 0x100014164, symSize: 0x1C }
  - { offset: 0x1D274, size: 0x8, addend: 0x0, symName: __ZNSt7__cxx1112basic_stringIcSt11char_traitsIcESaIcEE9_S_assignEPcmc, symObjAddr: 0x1360C, symBinAddr: 0x10001410C, symSize: 0x58 }
  - { offset: 0x1D2C4, size: 0x8, addend: 0x0, symName: __ZNSt7__cxx1112basic_stringIcSt11char_traitsIcESaIcEE6assignEPKcm, symObjAddr: 0x135D0, symBinAddr: 0x1000140D0, symSize: 0x3C }
  - { offset: 0x1D30C, size: 0x8, addend: 0x0, symName: __ZNSt6ranges14__copy_or_moveILb0EPcS1_NSt8__format10_Sink_iterIcEEEENSt13__conditionalIXT_EE4typeINS_13in_out_resultIT0_T2_EESB_EES9_T1_SA_, symObjAddr: 0x13520, symBinAddr: 0x100014020, symSize: 0xB0 }
  - { offset: 0x1D4A2, size: 0x8, addend: 0x0, symName: __ZNSt7__cxx1112basic_stringIcSt11char_traitsIcESaIcEE12_M_constructINSt9__unicode13_Utf_iteratorIDicPKDiS9_NS6_5_ReplEEEEEvT_SC_St18input_iterator_tag, symObjAddr: 0x1328C, symBinAddr: 0x100013D8C, symSize: 0x294 }
  - { offset: 0x1D5AF, size: 0x8, addend: 0x0, symName: __ZZNSt7__cxx1112basic_stringIcSt11char_traitsIcESaIcEE12_M_constructINSt9__unicode13_Utf_iteratorIDicPKDiS9_NS6_5_ReplEEEEEvT_SC_St18input_iterator_tagEN6_GuardC1EPS4_, symObjAddr: 0x13234, symBinAddr: 0x100013D34, symSize: 0x24 }
  - { offset: 0x1D5E2, size: 0x8, addend: 0x0, symName: __ZZNSt7__cxx1112basic_stringIcSt11char_traitsIcESaIcEE12_M_constructINSt9__unicode13_Utf_iteratorIDicPKDiS9_NS6_5_ReplEEEEEvT_SC_St18input_iterator_tagEN6_GuardD1Ev, symObjAddr: 0x13258, symBinAddr: 0x100013D58, symSize: 0x34 }
  - { offset: 0x1D696, size: 0x8, addend: 0x0, symName: __ZNSt9__unicode13_Utf_iteratorIDicPKDiS2_NS_5_ReplEE7_M_readEv, symObjAddr: 0x13214, symBinAddr: 0x100013D14, symSize: 0x20 }
  - { offset: 0x1D6C0, size: 0x8, addend: 0x0, symName: __ZNSt9__unicode13_Utf_iteratorIDicPKDiS2_NS_5_ReplEE7_M_currEv, symObjAddr: 0x131FC, symBinAddr: 0x100013CFC, symSize: 0x18 }
  - { offset: 0x1D720, size: 0x8, addend: 0x0, symName: __ZNSt9__unicode13_Utf_iteratorIDicPKDiS2_NS_5_ReplEE15_First_and_currIS2_EC1ES2_S2_, symObjAddr: 0x131C8, symBinAddr: 0x100013CC8, symSize: 0x34 }
  - { offset: 0x1D764, size: 0x8, addend: 0x0, symName: __ZNKSt8__format17_WidthPrecVisitorclINSt16basic_format_argISt20basic_format_contextINS_10_Sink_iterIcEEcEE6handleEEEmRT_, symObjAddr: 0x131AC, symBinAddr: 0x100013CAC, symSize: 0x1C }
  - { offset: 0x1D7A8, size: 0x8, addend: 0x0, symName: __ZNKSt8__format17_WidthPrecVisitorclISt17basic_string_viewIcSt11char_traitsIcEEEEmRT_, symObjAddr: 0x13190, symBinAddr: 0x100013C90, symSize: 0x1C }
  - { offset: 0x1D7EC, size: 0x8, addend: 0x0, symName: __ZNKSt8__format17_WidthPrecVisitorclIPKcEEmRT_, symObjAddr: 0x13174, symBinAddr: 0x100013C74, symSize: 0x1C }
  - { offset: 0x1D830, size: 0x8, addend: 0x0, symName: __ZNKSt8__format17_WidthPrecVisitorclIcEEmRT_, symObjAddr: 0x13158, symBinAddr: 0x100013C58, symSize: 0x1C }
  - { offset: 0x1D870, size: 0x8, addend: 0x0, symName: __ZNSt9__unicode13__field_widthIcEEmSt17basic_string_viewIT_St11char_traitsIS2_EE, symObjAddr: 0x130A0, symBinAddr: 0x100013BA0, symSize: 0xB8 }
  - { offset: 0x1D8EE, size: 0x8, addend: 0x0, symName: __ZNKSt17basic_string_viewIcSt11char_traitsIcEE5emptyEv, symObjAddr: 0x1307C, symBinAddr: 0x100013B7C, symSize: 0x24 }
  - { offset: 0x1D914, size: 0x8, addend: 0x0, symName: __ZNSt9__unicode10__truncateIcEEmRSt17basic_string_viewIT_St11char_traitsIS2_EEm, symObjAddr: 0x12F34, symBinAddr: 0x100013A34, symSize: 0x148 }
  - { offset: 0x1D9CD, size: 0x8, addend: 0x0, symName: __ZNKSt9__unicode9__v16_0_022_Grapheme_cluster_viewISt17basic_string_viewIcSt11char_traitsIcEEE9_Iterator4baseEv, symObjAddr: 0x12F14, symBinAddr: 0x100013A14, symSize: 0x20 }
  - { offset: 0x1D9F7, size: 0x8, addend: 0x0, symName: __ZNKSt9__unicode9__v16_0_022_Grapheme_cluster_viewISt17basic_string_viewIcSt11char_traitsIcEEE9_Iterator5widthEv, symObjAddr: 0x12EF4, symBinAddr: 0x1000139F4, symSize: 0x20 }
  - { offset: 0x1DA25, size: 0x8, addend: 0x0, symName: __ZNKSt9__unicode9__v16_0_022_Grapheme_cluster_viewISt17basic_string_viewIcSt11char_traitsIcEEE3endEv, symObjAddr: 0x12ED8, symBinAddr: 0x1000139D8, symSize: 0x1C }
  - { offset: 0x1DA53, size: 0x8, addend: 0x0, symName: __ZNKSt9__unicode9__v16_0_022_Grapheme_cluster_viewISt17basic_string_viewIcSt11char_traitsIcEEE9_Iterator3endEv, symObjAddr: 0x12EB8, symBinAddr: 0x1000139B8, symSize: 0x20 }
  - { offset: 0x1DA81, size: 0x8, addend: 0x0, symName: __ZNKSt9__unicode9__v16_0_022_Grapheme_cluster_viewISt17basic_string_viewIcSt11char_traitsIcEEE5beginEv, symObjAddr: 0x12E7C, symBinAddr: 0x10001397C, symSize: 0x3C }
  - { offset: 0x1DACF, size: 0x8, addend: 0x0, symName: __ZNSt8__format5_SinkIcE8_M_writeEc, symObjAddr: 0x12D88, symBinAddr: 0x100013888, symSize: 0xF4 }
  - { offset: 0x1DC17, size: 0x8, addend: 0x0, symName: __ZNSt7__cxx1112basic_stringIcSt11char_traitsIcESaIcEE22__resize_and_overwriteIZNKSt8__format14__formatter_fpIcE11_M_localizeESt17basic_string_viewIcS2_EcRKSt6localeEUlPcmE_EEvmT_, symObjAddr: 0x12C78, symBinAddr: 0x100013778, symSize: 0x110 }
  - { offset: 0x1DD06, size: 0x8, addend: 0x0, symName: __ZZNSt7__cxx1112basic_stringIcSt11char_traitsIcESaIcEE22__resize_and_overwriteIZNKSt8__format14__formatter_fpIcE11_M_localizeESt17basic_string_viewIcS2_EcRKSt6localeEUlPcmE_EEvmT_EN11_TerminatorD1Ev, symObjAddr: 0x12C44, symBinAddr: 0x100013744, symSize: 0x34 }
  - { offset: 0x1DDB2, size: 0x8, addend: 0x0, symName: __ZNSt8__format5_SpecIcE7_S_signEc, symObjAddr: 0x12BF4, symBinAddr: 0x1000136F4, symSize: 0x50 }
  - { offset: 0x1DDDC, size: 0x8, addend: 0x0, symName: __ZSt14__add_groupingIcEPT_S1_S0_PKcmPKS0_S5_, symObjAddr: 0x129A8, symBinAddr: 0x1000134A8, symSize: 0x24C }
  - { offset: 0x1DED0, size: 0x8, addend: 0x0, symName: __ZNSt8__format23__write_escaped_unicodeIcNS_10_Sink_iterIcEEEET0_S3_St17basic_string_viewIT_St11char_traitsIS5_EENS_10_Term_charE, symObjAddr: 0x1259C, symBinAddr: 0x10001309C, symSize: 0x40C }
  - { offset: 0x1DF71, size: 0x8, addend: 0x0, symName: __ZZNSt8__format23__write_escaped_unicodeIcNS_10_Sink_iterIcEEEET0_S3_St17basic_string_viewIT_St11char_traitsIS5_EENS_10_Term_charEE13__replace_rep, symObjAddr: 0x1B5A8, symBinAddr: 0x100035D80, symSize: 0x0 }
  - { offset: 0x1E145, size: 0x8, addend: 0x0, symName: __ZZNSt8__format23__write_escaped_unicodeIcNS_10_Sink_iterIcEEEET0_S3_St17basic_string_viewIT_St11char_traitsIS5_EENS_10_Term_charEENKUlRKS5_E_clINSt9__unicode13_Utf_iteratorIcDiPKcSH_NSE_5_ReplEEEEEDaSB_, symObjAddr: 0x1243C, symBinAddr: 0x100012F3C, symSize: 0x144 }
  - { offset: 0x1E232, size: 0x8, addend: 0x0, symName: __ZNKSt9__unicode13_Utf_iteratorIcDiPKcS2_NS_5_ReplEE8_M_unitsEvQ16forward_iteratorIT1_E, symObjAddr: 0x12580, symBinAddr: 0x100013080, symSize: 0x1C }
  - { offset: 0x1E267, size: 0x8, addend: 0x0, symName: __ZNSt9__unicode9_Utf_viewIDiSt17basic_string_viewIcSt11char_traitsIcEEE3endEv, symObjAddr: 0x123D8, symBinAddr: 0x100012ED8, symSize: 0x64 }
  - { offset: 0x1E291, size: 0x8, addend: 0x0, symName: __ZNSt9__unicode9_Utf_viewIDiSt17basic_string_viewIcSt11char_traitsIcEEE6_M_endIPKcS8_EEDaT_T0_, symObjAddr: 0x123A4, symBinAddr: 0x100012EA4, symSize: 0x34 }
  - { offset: 0x1E2F3, size: 0x8, addend: 0x0, symName: __ZNSt9__unicode9_Utf_viewIDiSt17basic_string_viewIcSt11char_traitsIcEEE5beginEv, symObjAddr: 0x12340, symBinAddr: 0x100012E40, symSize: 0x64 }
  - { offset: 0x1E31D, size: 0x8, addend: 0x0, symName: __ZNSt9__unicode9_Utf_viewIDiSt17basic_string_viewIcSt11char_traitsIcEEE8_M_beginIPKcS8_EEDaT_T0_, symObjAddr: 0x1230C, symBinAddr: 0x100012E0C, symSize: 0x34 }
  - { offset: 0x1E3C7, size: 0x8, addend: 0x0, symName: __ZNSt9__unicode9_Utf_viewIDiSt17basic_string_viewIcSt11char_traitsIcEEEC1EOS4_, symObjAddr: 0x122DC, symBinAddr: 0x100012DDC, symSize: 0x30 }
  - { offset: 0x1E44A, size: 0x8, addend: 0x0, symName: __ZNKSt6ranges8__access4_EndclIRSt17basic_string_viewIcSt11char_traitsIcEEEEDaOT_, symObjAddr: 0x122BC, symBinAddr: 0x100012DBC, symSize: 0x20 }
  - { offset: 0x1E499, size: 0x8, addend: 0x0, symName: __ZNKSt6ranges8__access6_BeginclIRSt17basic_string_viewIcSt11char_traitsIcEEEEDaOT_, symObjAddr: 0x1229C, symBinAddr: 0x100012D9C, symSize: 0x20 }
  - { offset: 0x1E4EE, size: 0x8, addend: 0x0, symName: __ZNSt8__format8_EscapesIcE7_S_termENS_10_Term_charE, symObjAddr: 0x12264, symBinAddr: 0x100012D64, symSize: 0x38 }
  - { offset: 0x1E51C, size: 0x8, addend: 0x0, symName: __ZNSt7__cxx1112basic_stringIcSt11char_traitsIcESaIcEE6assignEPKc, symObjAddr: 0x12218, symBinAddr: 0x100012D18, symSize: 0x4C }
  - { offset: 0x1E557, size: 0x8, addend: 0x0, symName: __ZNSt7__cxx1112basic_stringIcSt11char_traitsIcESaIcEE5clearEv, symObjAddr: 0x121F4, symBinAddr: 0x100012CF4, symSize: 0x24 }
  - { offset: 0x1E585, size: 0x8, addend: 0x0, symName: __ZNSt7__cxx1112basic_stringIcSt11char_traitsIcESaIcEE9_M_assignERKS4_, symObjAddr: 0x12100, symBinAddr: 0x100012C00, symSize: 0xF4 }
  - { offset: 0x1E699, size: 0x8, addend: 0x0, symName: __ZNKSt17basic_string_viewIcSt11char_traitsIcEE4copyEPcmm, symObjAddr: 0x1206C, symBinAddr: 0x100012B6C, symSize: 0x94 }
  - { offset: 0x1E703, size: 0x8, addend: 0x0, symName: __ZSt12__to_chars_iIoESt15to_chars_resultPcS1_T_i, symObjAddr: 0x11E94, symBinAddr: 0x100012994, symSize: 0x1D8 }
  - { offset: 0x1E7AE, size: 0x8, addend: 0x0, symName: __ZNKSt8__format17_WidthPrecVisitorclIoEEmRT_, symObjAddr: 0x11E78, symBinAddr: 0x100012978, symSize: 0x1C }
  - { offset: 0x1E7F8, size: 0x8, addend: 0x0, symName: __ZNKSt8__format17_WidthPrecVisitorclInEEmRT_, symObjAddr: 0x11E5C, symBinAddr: 0x10001295C, symSize: 0x1C }
  - { offset: 0x1E842, size: 0x8, addend: 0x0, symName: __ZNKSt8__format17_WidthPrecVisitorclIPKvEEmRT_, symObjAddr: 0x11E40, symBinAddr: 0x100012940, symSize: 0x1C }
  - { offset: 0x1E88C, size: 0x8, addend: 0x0, symName: __ZNKSt8__format17_WidthPrecVisitorclIeEEmRT_, symObjAddr: 0x11E24, symBinAddr: 0x100012924, symSize: 0x1C }
  - { offset: 0x1E8D0, size: 0x8, addend: 0x0, symName: __ZNKSt8__format17_WidthPrecVisitorclIdEEmRT_, symObjAddr: 0x11E08, symBinAddr: 0x100012908, symSize: 0x1C }
  - { offset: 0x1E914, size: 0x8, addend: 0x0, symName: __ZNKSt8__format17_WidthPrecVisitorclIfEEmRT_, symObjAddr: 0x11DEC, symBinAddr: 0x1000128EC, symSize: 0x1C }
  - { offset: 0x1E95E, size: 0x8, addend: 0x0, symName: __ZNKSt8__format17_WidthPrecVisitorclIyEEmRT_, symObjAddr: 0x11DD0, symBinAddr: 0x1000128D0, symSize: 0x1C }
  - { offset: 0x1E9A8, size: 0x8, addend: 0x0, symName: __ZNKSt8__format17_WidthPrecVisitorclIxEEmRT_, symObjAddr: 0x11D90, symBinAddr: 0x100012890, symSize: 0x40 }
  - { offset: 0x1E9F2, size: 0x8, addend: 0x0, symName: __ZNKSt8__format17_WidthPrecVisitorclIjEEmRT_, symObjAddr: 0x11D70, symBinAddr: 0x100012870, symSize: 0x20 }
  - { offset: 0x1EA3C, size: 0x8, addend: 0x0, symName: __ZNKSt8__format17_WidthPrecVisitorclIiEEmRT_, symObjAddr: 0x11D2C, symBinAddr: 0x10001282C, symSize: 0x44 }
  - { offset: 0x1EA80, size: 0x8, addend: 0x0, symName: __ZNKSt8__format17_WidthPrecVisitorclIbEEmRT_, symObjAddr: 0x11D10, symBinAddr: 0x100012810, symSize: 0x1C }
  - { offset: 0x1EACA, size: 0x8, addend: 0x0, symName: __ZNKSt8__format17_WidthPrecVisitorclISt9monostateEEmRT_, symObjAddr: 0x11CFC, symBinAddr: 0x1000127FC, symSize: 0x14 }
  - { offset: 0x1EB3C, size: 0x8, addend: 0x0, symName: __ZNSt7__cxx1112basic_stringIcSt11char_traitsIcESaIcEE14_M_replace_auxEmmmc, symObjAddr: 0x11BA0, symBinAddr: 0x1000126A0, symSize: 0x15C }
  - { offset: 0x1EC02, size: 0x8, addend: 0x0, symName: __ZNSt7__cxx1112basic_stringIcSt11char_traitsIcESaIcEE9push_backEc, symObjAddr: 0x11AFC, symBinAddr: 0x1000125FC, symSize: 0xA4 }
  - { offset: 0x1EC4E, size: 0x8, addend: 0x0, symName: __ZNSt7__cxx1112basic_stringIcSt11char_traitsIcESaIcEE6assignISt17basic_string_viewIcS2_EEENSt9enable_ifIXsrSt6__and_IJSt14is_convertibleIRKT_S7_ESt6__not_ISA_IPSC_PKS4_EESF_ISA_ISD_PKcEEEE5valueERS4_E4typeESD_, symObjAddr: 0x11AAC, symBinAddr: 0x1000125AC, symSize: 0x50 }
  - { offset: 0x1EC9F, size: 0x8, addend: 0x0, symName: __ZSteqIcSt11char_traitsIcESaIcEEbRKNSt7__cxx1112basic_stringIT_T0_T1_EEPKS5_, symObjAddr: 0x11A38, symBinAddr: 0x100012538, symSize: 0x74 }
  - { offset: 0x1ECF5, size: 0x8, addend: 0x0, symName: __ZNSt6ranges14__copy_or_moveILb0EN9__gnu_cxx17__normal_iteratorIPcNSt4spanIcLm18446744073709551615EE10__iter_tagEEES7_NSt8__format10_Sink_iterIcEEEENSt13__conditionalIXT_EE4typeINS_13in_out_resultIT0_T2_EESH_EESF_T1_SG_, symObjAddr: 0x119D8, symBinAddr: 0x1000124D8, symSize: 0x60 }
  - { offset: 0x1EE75, size: 0x8, addend: 0x0, symName: __ZNSt8__format15__formatter_intIcE15_S_to_characterIoEEcT_, symObjAddr: 0x1198C, symBinAddr: 0x10001248C, symSize: 0x4C }
  - { offset: 0x1EEA8, size: 0x8, addend: 0x0, symName: __ZNSt8__format15__formatter_intIcE8to_charsIoEESt15to_chars_resultPcS4_T_i, symObjAddr: 0x11958, symBinAddr: 0x100012458, symSize: 0x34 }
  - { offset: 0x1EF0E, size: 0x8, addend: 0x0, symName: __ZNSt8__format15__formatter_intIcE15_S_to_characterInEEcT_, symObjAddr: 0x1190C, symBinAddr: 0x10001240C, symSize: 0x4C }
  - { offset: 0x1EF92, size: 0x8, addend: 0x0, symName: __ZNSt7__cxx1112basic_stringIcSt11char_traitsIcESaIcEEC1INSt9__unicode13_Utf_iteratorIDicPKDiS9_NS6_5_ReplEEEvEET_SC_RKS3_, symObjAddr: 0x11840, symBinAddr: 0x100012340, symSize: 0xCC }
  - { offset: 0x1F03E, size: 0x8, addend: 0x0, symName: __ZNSt9__unicode13_Utf_iteratorIDicPKDiS2_NS_5_ReplEEC1ES2_S2_S2_Q22bidirectional_iteratorIT1_E, symObjAddr: 0x117A4, symBinAddr: 0x1000122A4, symSize: 0x9C }
  - { offset: 0x1F07B, size: 0x8, addend: 0x0, symName: __ZNSt9__unicode21__is_single_code_unitIcEEbDi, symObjAddr: 0x11784, symBinAddr: 0x100012284, symSize: 0x20 }
  - { offset: 0x1F0B3, size: 0x8, addend: 0x0, symName: __ZNSt8__format14__int_from_argISt20basic_format_contextINS_10_Sink_iterIcEEcEEEmRKSt16basic_format_argIT_E, symObjAddr: 0x1174C, symBinAddr: 0x10001224C, symSize: 0x38 }
  - { offset: 0x1F0E6, size: 0x8, addend: 0x0, symName: __ZNSt8__format18__visit_format_argINS_17_WidthPrecVisitorESt20basic_format_contextINS_10_Sink_iterIcEEcEEEDcOT_St16basic_format_argIT0_E, symObjAddr: 0x1170C, symBinAddr: 0x10001220C, symSize: 0x40 }
  - { offset: 0x1F15B, size: 0x8, addend: 0x0, symName: __ZNSt16basic_format_argISt20basic_format_contextINSt8__format10_Sink_iterIcEEcEE8_M_visitINS1_17_WidthPrecVisitorEEEDcOT_NS1_6_Arg_tE, symObjAddr: 0x11468, symBinAddr: 0x100011F68, symSize: 0x2A4 }
  - { offset: 0x1F429, size: 0x8, addend: 0x0, symName: __ZNSt8__format9_Seq_sinkINSt7__cxx1112basic_stringIcSt11char_traitsIcESaIcEEEE4viewEv, symObjAddr: 0x11380, symBinAddr: 0x100011E80, symSize: 0xE8 }
  - { offset: 0x1F4F8, size: 0x8, addend: 0x0, symName: __ZNSt8__format15__formatter_strIcE8_S_truncERSt17basic_string_viewIcSt11char_traitsIcEEm, symObjAddr: 0x1133C, symBinAddr: 0x100011E3C, symSize: 0x44 }
  - { offset: 0x1F537, size: 0x8, addend: 0x0, symName: __ZNSt7__cxx1112basic_stringIcSt11char_traitsIcESaIcEE22__resize_and_overwriteIZNKSt8__format14__formatter_fpIcE6formatIdNS6_10_Sink_iterIcEEEENSt20basic_format_contextIT0_cE8iteratorET_RSE_EUlPcmE_EEvmSG_, symObjAddr: 0x11244, symBinAddr: 0x100011D44, symSize: 0xF8 }
  - { offset: 0x1F626, size: 0x8, addend: 0x0, symName: __ZZNSt7__cxx1112basic_stringIcSt11char_traitsIcESaIcEE22__resize_and_overwriteIZNKSt8__format14__formatter_fpIcE6formatIdNS6_10_Sink_iterIcEEEENSt20basic_format_contextIT0_cE8iteratorET_RSE_EUlPcmE_EEvmSG_EN11_TerminatorD1Ev, symObjAddr: 0x11210, symBinAddr: 0x100011D10, symSize: 0x34 }
  - { offset: 0x1F700, size: 0x8, addend: 0x0, symName: __ZNKSt8__format14__formatter_fpIcE11_M_localizeB5cxx11ESt17basic_string_viewIcSt11char_traitsIcEEcRKSt6locale, symObjAddr: 0x11018, symBinAddr: 0x100011B18, symSize: 0x1F8 }
  - { offset: 0x1F8DA, size: 0x8, addend: 0x0, symName: __ZZNKSt8__format14__formatter_fpIcE11_M_localizeB5cxx11ESt17basic_string_viewIcSt11char_traitsIcEEcRKSt6localeENKUlPcmE_clES9_m, symObjAddr: 0x10EA0, symBinAddr: 0x1000119A0, symSize: 0x178 }
  - { offset: 0x1F9DB, size: 0x8, addend: 0x0, symName: __ZNSt7__cxx1112basic_stringIcSt11char_traitsIcESaIcEE22__resize_and_overwriteIZNKSt8__format14__formatter_fpIcE6formatIfNS6_10_Sink_iterIcEEEENSt20basic_format_contextIT0_cE8iteratorET_RSE_EUlPcmE_EEvmSG_, symObjAddr: 0x10DA8, symBinAddr: 0x1000118A8, symSize: 0xF8 }
  - { offset: 0x1FACA, size: 0x8, addend: 0x0, symName: __ZZNSt7__cxx1112basic_stringIcSt11char_traitsIcESaIcEE22__resize_and_overwriteIZNKSt8__format14__formatter_fpIcE6formatIfNS6_10_Sink_iterIcEEEENSt20basic_format_contextIT0_cE8iteratorET_RSE_EUlPcmE_EEvmSG_EN11_TerminatorD1Ev, symObjAddr: 0x10D74, symBinAddr: 0x100011874, symSize: 0x34 }
  - { offset: 0x1FB5B, size: 0x8, addend: 0x0, symName: __ZNKSt8__format5_SpecIcE16_M_get_precisionISt20basic_format_contextINS_10_Sink_iterIcEEcEEEmRT_, symObjAddr: 0x10CE8, symBinAddr: 0x1000117E8, symSize: 0x8C }
  - { offset: 0x1FBB0, size: 0x8, addend: 0x0, symName: __ZNSt8__format5_SpecIcE15_M_parse_localeEPKcS3_, symObjAddr: 0x10CA0, symBinAddr: 0x1000117A0, symSize: 0x48 }
  - { offset: 0x1FBF4, size: 0x8, addend: 0x0, symName: __ZNSt8__format5_SpecIcE23_M_parse_alternate_formEPKcS3_, symObjAddr: 0x10C58, symBinAddr: 0x100011758, symSize: 0x48 }
  - { offset: 0x1FC38, size: 0x8, addend: 0x0, symName: __ZNSt8__format5_SpecIcE13_M_parse_signEPKcS3_, symObjAddr: 0x10BF4, symBinAddr: 0x1000116F4, symSize: 0x64 }
  - { offset: 0x1FC9C, size: 0x8, addend: 0x0, symName: __ZNSt8__format15__formatter_intIcE15_S_to_characterIyEEcT_, symObjAddr: 0x10BBC, symBinAddr: 0x1000116BC, symSize: 0x38 }
  - { offset: 0x1FCCF, size: 0x8, addend: 0x0, symName: __ZNSt8__format15__formatter_intIcE8to_charsIyEESt15to_chars_resultPcS4_T_i, symObjAddr: 0x10B88, symBinAddr: 0x100011688, symSize: 0x34 }
  - { offset: 0x1FD35, size: 0x8, addend: 0x0, symName: __ZNSt8__format15__formatter_intIcE15_S_to_characterIxEEcT_, symObjAddr: 0x10B44, symBinAddr: 0x100011644, symSize: 0x44 }
  - { offset: 0x1FD68, size: 0x8, addend: 0x0, symName: __ZNSt8__format15__formatter_intIcE15_S_to_characterIjEEcT_, symObjAddr: 0x10B0C, symBinAddr: 0x10001160C, symSize: 0x38 }
  - { offset: 0x1FD9B, size: 0x8, addend: 0x0, symName: __ZNSt8__format15__formatter_intIcE8to_charsIjEESt15to_chars_resultPcS4_T_i, symObjAddr: 0x10AD8, symBinAddr: 0x1000115D8, symSize: 0x34 }
  - { offset: 0x1FE01, size: 0x8, addend: 0x0, symName: __ZNSt8__format15__formatter_intIcE15_S_to_characterIiEEcT_, symObjAddr: 0x10A94, symBinAddr: 0x100011594, symSize: 0x44 }
  - { offset: 0x1FE44, size: 0x8, addend: 0x0, symName: __ZNKSt8__format15__formatter_intIcE13_M_format_intINS_10_Sink_iterIcEEEENSt20basic_format_contextIT_cE8iteratorESt17basic_string_viewIcSt11char_traitsIcEEmRS7_, symObjAddr: 0x1073C, symBinAddr: 0x10001123C, symSize: 0x358 }
  - { offset: 0x1FFEE, size: 0x8, addend: 0x0, symName: __ZNSt8__format10__put_signIhEEPcT_NS_5_SignES1_, symObjAddr: 0x106DC, symBinAddr: 0x1000111DC, symSize: 0x60 }
  - { offset: 0x20043, size: 0x8, addend: 0x0, symName: __ZNSt8__format15__formatter_intIcE8to_charsIhEESt15to_chars_resultPcS4_T_i, symObjAddr: 0x106A0, symBinAddr: 0x1000111A0, symSize: 0x3C }
  - { offset: 0x200A9, size: 0x8, addend: 0x0, symName: __ZNSt8__format15__formatter_intIcE15_S_to_characterIhEEcT_, symObjAddr: 0x1066C, symBinAddr: 0x10001116C, symSize: 0x34 }
  - { offset: 0x200DC, size: 0x8, addend: 0x0, symName: __ZNSt8__format15__write_escapedIcNS_10_Sink_iterIcEEEET0_S3_St17basic_string_viewIT_St11char_traitsIS5_EENS_10_Term_charE, symObjAddr: 0x105D4, symBinAddr: 0x1000110D4, symSize: 0x98 }
  - { offset: 0x20211, size: 0x8, addend: 0x0, symName: __ZNSt7__cxx1112basic_stringIcSt11char_traitsIcESaIcEEaSEPKc, symObjAddr: 0x105B0, symBinAddr: 0x1000110B0, symSize: 0x24 }
  - { offset: 0x2024C, size: 0x8, addend: 0x0, symName: __ZNSt7__cxx1112basic_stringIcSt11char_traitsIcESaIcEEaSEOS4_, symObjAddr: 0x1030C, symBinAddr: 0x100010E0C, symSize: 0x2A4 }
  - { offset: 0x203A4, size: 0x8, addend: 0x0, symName: __ZNSt20basic_format_contextINSt8__format10_Sink_iterIcEEcE6localeEv, symObjAddr: 0x102D0, symBinAddr: 0x100010DD0, symSize: 0x3C }
  - { offset: 0x203CE, size: 0x8, addend: 0x0, symName: __ZNSt8__format15__formatter_intIcE11_M_do_parseERSt26basic_format_parse_contextIcENS_10_Pres_typeE, symObjAddr: 0xFF50, symBinAddr: 0x100010A50, symSize: 0x380 }
  - { offset: 0x204E4, size: 0x8, addend: 0x0, symName: __ZZNSt8__format15__formatter_intIcE11_M_do_parseERSt26basic_format_parse_contextIcENS_10_Pres_typeEENKUlvE_clEv, symObjAddr: 0xFEB8, symBinAddr: 0x1000109B8, symSize: 0x34 }
  - { offset: 0x205F7, size: 0x8, addend: 0x0, symName: __ZZNSt8__format15__formatter_intIcE11_M_do_parseERSt26basic_format_parse_contextIcENS_10_Pres_typeEENKUlvE0_clEv, symObjAddr: 0xFEEC, symBinAddr: 0x1000109EC, symSize: 0x64 }
  - { offset: 0x20675, size: 0x8, addend: 0x0, symName: __ZNSt8__format5_SinkIcE8_M_writeESt17basic_string_viewIcSt11char_traitsIcEE, symObjAddr: 0xFC8C, symBinAddr: 0x10001078C, symSize: 0x22C }
  - { offset: 0x2084A, size: 0x8, addend: 0x0, symName: __ZNSt8__format10__put_signIoEEPcT_NS_5_SignES1_, symObjAddr: 0xFC2C, symBinAddr: 0x10001072C, symSize: 0x60 }
  - { offset: 0x2089F, size: 0x8, addend: 0x0, symName: __ZNSt8__format10__put_signInEEPcT_NS_5_SignES1_, symObjAddr: 0xFBB0, symBinAddr: 0x1000106B0, symSize: 0x7C }
  - { offset: 0x208F8, size: 0x8, addend: 0x0, symName: __ZNSt7__cxx1112basic_stringIcSt11char_traitsIcESaIcEEixEm, symObjAddr: 0xFB2C, symBinAddr: 0x10001062C, symSize: 0x84 }
  - { offset: 0x20951, size: 0x8, addend: 0x0, symName: __ZNSt7__cxx1112basic_stringIcSt11char_traitsIcESaIcEE6insertEmmc, symObjAddr: 0xFAD8, symBinAddr: 0x1000105D8, symSize: 0x54 }
  - { offset: 0x209AE, size: 0x8, addend: 0x0, symName: __ZNSt7__cxx1112basic_stringIcSt11char_traitsIcESaIcEE6appendISt17basic_string_viewIcS2_EEENSt9enable_ifIXsrSt6__and_IJSt14is_convertibleIRKT_S7_ESt6__not_ISA_IPSC_PKS4_EESF_ISA_ISD_PKcEEEE5valueERS4_E4typeESD_, symObjAddr: 0xFA88, symBinAddr: 0x100010588, symSize: 0x50 }
  - { offset: 0x20A03, size: 0x8, addend: 0x0, symName: __ZNSt7__cxx1112basic_stringIcSt11char_traitsIcESaIcEE6appendEmc, symObjAddr: 0xFA44, symBinAddr: 0x100010544, symSize: 0x44 }
  - { offset: 0x20A4F, size: 0x8, addend: 0x0, symName: __ZNSt7__cxx1112basic_stringIcSt11char_traitsIcESaIcEEpLEc, symObjAddr: 0xFA14, symBinAddr: 0x100010514, symSize: 0x30 }
  - { offset: 0x20A8A, size: 0x8, addend: 0x0, symName: __ZNSt7__cxx1112basic_stringIcSt11char_traitsIcESaIcEEaSISt17basic_string_viewIcS2_EEENSt9enable_ifIXsrSt6__and_IJSt14is_convertibleIRKT_S7_ESt6__not_ISA_IPSC_PKS4_EESF_ISA_ISD_PKcEEEE5valueERS4_E4typeESD_, symObjAddr: 0xF9F0, symBinAddr: 0x1000104F0, symSize: 0x24 }
  - { offset: 0x20AD1, size: 0x8, addend: 0x0, symName: __ZNKSt17basic_string_viewIcSt11char_traitsIcEE17find_first_not_ofEcm, symObjAddr: 0xF974, symBinAddr: 0x100010474, symSize: 0x7C }
  - { offset: 0x20B17, size: 0x8, addend: 0x0, symName: __ZNSt8__format10__put_signIyEEPcT_NS_5_SignES1_, symObjAddr: 0xF914, symBinAddr: 0x100010414, symSize: 0x60 }
  - { offset: 0x20B6C, size: 0x8, addend: 0x0, symName: __ZNSt8__format10__put_signIxEEPcT_NS_5_SignES1_, symObjAddr: 0xF898, symBinAddr: 0x100010398, symSize: 0x7C }
  - { offset: 0x20BC1, size: 0x8, addend: 0x0, symName: __ZNSt8__format10__put_signIiEEPcT_NS_5_SignES1_, symObjAddr: 0xF81C, symBinAddr: 0x10001031C, symSize: 0x7C }
  - { offset: 0x20C16, size: 0x8, addend: 0x0, symName: __ZNSt8__format10__put_signIjEEPcT_NS_5_SignES1_, symObjAddr: 0xF7BC, symBinAddr: 0x1000102BC, symSize: 0x60 }
  - { offset: 0x20C73, size: 0x8, addend: 0x0, symName: __ZNSt7__cxx1112basic_stringIcSt11char_traitsIcESaIcEE6resizeEmc, symObjAddr: 0xF73C, symBinAddr: 0x10001023C, symSize: 0x80 }
  - { offset: 0x20D24, size: 0x8, addend: 0x0, symName: __ZNKSt6ranges9__copy_fnclIN9__gnu_cxx17__normal_iteratorIPcNSt4spanIcLm18446744073709551615EE10__iter_tagEEES8_NSt8__format10_Sink_iterIcEEEENS_13in_out_resultIT_T1_EESD_T0_SE_, symObjAddr: 0xF700, symBinAddr: 0x100010200, symSize: 0x3C }
  - { offset: 0x20DFF, size: 0x8, addend: 0x0, symName: __ZNKSt8__format15__formatter_intIcE6formatIoNS_10_Sink_iterIcEEEENSt20basic_format_contextIT0_cE8iteratorET_RS7_, symObjAddr: 0xF3B8, symBinAddr: 0x10000FEB8, symSize: 0x348 }
  - { offset: 0x20F0C, size: 0x8, addend: 0x0, symName: __ZNSt8__format15__formatter_intIcE8_M_parseIoEEPKcRSt26basic_format_parse_contextIcE, symObjAddr: 0xF390, symBinAddr: 0x10000FE90, symSize: 0x28 }
  - { offset: 0x20F50, size: 0x8, addend: 0x0, symName: __ZNKSt8__format15__formatter_intIcE6formatInNS_10_Sink_iterIcEEEENSt20basic_format_contextIT0_cE8iteratorET_RS7_, symObjAddr: 0xF020, symBinAddr: 0x10000FB20, symSize: 0x370 }
  - { offset: 0x2104F, size: 0x8, addend: 0x0, symName: __ZNSt8__format15__formatter_intIcE8_M_parseInEEPKcRSt26basic_format_parse_contextIcE, symObjAddr: 0xEFF8, symBinAddr: 0x10000FAF8, symSize: 0x28 }
  - { offset: 0x21095, size: 0x8, addend: 0x0, symName: __ZNSt8__format22__write_padded_as_specIcNS_10_Sink_iterIcEEEET0_St17basic_string_viewINSt13type_identityIT_E4typeESt11char_traitsIS8_EEmRSt20basic_format_contextIS3_S6_ERKNS_5_SpecIS6_EENS_6_AlignE, symObjAddr: 0xEF38, symBinAddr: 0x10000FA38, symSize: 0xC0 }
  - { offset: 0x21137, size: 0x8, addend: 0x0, symName: __ZNSt8__format14__write_paddedINS_10_Sink_iterIcEEcEET_S3_St17basic_string_viewIT0_St11char_traitsIS5_EENS_6_AlignEmDi, symObjAddr: 0xEC78, symBinAddr: 0x10000F778, symSize: 0x2C0 }
  - { offset: 0x21284, size: 0x8, addend: 0x0, symName: __ZZNSt8__format14__write_paddedINS_10_Sink_iterIcEEcEET_S3_St17basic_string_viewIT0_St11char_traitsIS5_EENS_6_AlignEmDiENKUlmRS2_E_clEmSA_, symObjAddr: 0xEA14, symBinAddr: 0x10000F514, symSize: 0xF8 }
  - { offset: 0x214A3, size: 0x8, addend: 0x0, symName: __ZNSt9__unicode9_Utf_viewIcRA1_KDiE3endEv, symObjAddr: 0xEC0C, symBinAddr: 0x10000F70C, symSize: 0x6C }
  - { offset: 0x214CD, size: 0x8, addend: 0x0, symName: __ZNSt9__unicode9_Utf_viewIcRA1_KDiE6_M_endIPS1_S6_EEDaT_T0_, symObjAddr: 0xEBD8, symBinAddr: 0x10000F6D8, symSize: 0x34 }
  - { offset: 0x2152F, size: 0x8, addend: 0x0, symName: __ZNSt9__unicode9_Utf_viewIcRA1_KDiE5beginEv, symObjAddr: 0xEB6C, symBinAddr: 0x10000F66C, symSize: 0x6C }
  - { offset: 0x21559, size: 0x8, addend: 0x0, symName: __ZNSt9__unicode9_Utf_viewIcRA1_KDiE8_M_beginIPS1_S6_EEDaT_T0_, symObjAddr: 0xEB38, symBinAddr: 0x10000F638, symSize: 0x34 }
  - { offset: 0x215DF, size: 0x8, addend: 0x0, symName: __ZNSt9__unicode9_Utf_viewIcRA1_KDiEC1ES3_, symObjAddr: 0xEB0C, symBinAddr: 0x10000F60C, symSize: 0x2C }
  - { offset: 0x21632, size: 0x8, addend: 0x0, symName: __ZNSt17basic_string_viewIcSt11char_traitsIcEE13remove_prefixEm, symObjAddr: 0xE984, symBinAddr: 0x10000F484, symSize: 0x90 }
  - { offset: 0x2168A, size: 0x8, addend: 0x0, symName: __ZNKSt8__format5_SpecIcE12_M_get_widthISt20basic_format_contextINS_10_Sink_iterIcEEcEEEmRT_, symObjAddr: 0xE8FC, symBinAddr: 0x10000F3FC, symSize: 0x88 }
  - { offset: 0x216DF, size: 0x8, addend: 0x0, symName: __ZNSt8__format5_SpecIcE18_M_parse_zero_fillEPKcS3_, symObjAddr: 0xE8B4, symBinAddr: 0x10000F3B4, symSize: 0x48 }
  - { offset: 0x2172F, size: 0x8, addend: 0x0, symName: __ZNKSt8__format15__formatter_strIcE6formatINS_10_Sink_iterIcEEEET_St17basic_string_viewIcSt11char_traitsIcEERSt20basic_format_contextIS5_cE, symObjAddr: 0xE5F4, symBinAddr: 0x10000F0F4, symSize: 0x2C0 }
  - { offset: 0x2183E, size: 0x8, addend: 0x0, symName: __ZZNKSt8__format15__formatter_strIcE6formatINS_10_Sink_iterIcEEEET_St17basic_string_viewIcSt11char_traitsIcEERSt20basic_format_contextIS5_cEENKUlvE_clEv, symObjAddr: 0xE570, symBinAddr: 0x10000F070, symSize: 0x84 }
  - { offset: 0x21A13, size: 0x8, addend: 0x0, symName: __ZNKSt8__format14__formatter_fpIcE6formatIdNS_10_Sink_iterIcEEEENSt20basic_format_contextIT0_cE8iteratorET_RS7_, symObjAddr: 0xDAC0, symBinAddr: 0x10000E5C0, symSize: 0xAB0 }
  - { offset: 0x21BE8, size: 0x8, addend: 0x0, symName: __ZZNKSt8__format14__formatter_fpIcE6formatIdNS_10_Sink_iterIcEEEENSt20basic_format_contextIT0_cE8iteratorET_RS7_ENKUlPcSB_E_clESB_SB_, symObjAddr: 0xD958, symBinAddr: 0x10000E458, symSize: 0xD8 }
  - { offset: 0x21E0B, size: 0x8, addend: 0x0, symName: __ZZNKSt8__format14__formatter_fpIcE6formatIdNS_10_Sink_iterIcEEEENSt20basic_format_contextIT0_cE8iteratorET_RS7_ENKUlPcmE_clESB_m, symObjAddr: 0xDA30, symBinAddr: 0x10000E530, symSize: 0x90 }
  - { offset: 0x22008, size: 0x8, addend: 0x0, symName: __ZNKSt8__format14__formatter_fpIcE6formatIfNS_10_Sink_iterIcEEEENSt20basic_format_contextIT0_cE8iteratorET_RS7_, symObjAddr: 0xCEAC, symBinAddr: 0x10000D9AC, symSize: 0xAAC }
  - { offset: 0x221DD, size: 0x8, addend: 0x0, symName: __ZZNKSt8__format14__formatter_fpIcE6formatIfNS_10_Sink_iterIcEEEENSt20basic_format_contextIT0_cE8iteratorET_RS7_ENKUlPcSB_E_clESB_SB_, symObjAddr: 0xCD44, symBinAddr: 0x10000D844, symSize: 0xD8 }
  - { offset: 0x22400, size: 0x8, addend: 0x0, symName: __ZZNKSt8__format14__formatter_fpIcE6formatIfNS_10_Sink_iterIcEEEENSt20basic_format_contextIT0_cE8iteratorET_RS7_ENKUlPcmE_clESB_m, symObjAddr: 0xCE1C, symBinAddr: 0x10000D91C, symSize: 0x90 }
  - { offset: 0x225FD, size: 0x8, addend: 0x0, symName: __ZNSt8__format14__formatter_fpIcE5parseERSt26basic_format_parse_contextIcE, symObjAddr: 0xC9BC, symBinAddr: 0x10000D4BC, symSize: 0x388 }
  - { offset: 0x22701, size: 0x8, addend: 0x0, symName: __ZZNSt8__format14__formatter_fpIcE5parseERSt26basic_format_parse_contextIcEENKUlvE_clEv, symObjAddr: 0xC924, symBinAddr: 0x10000D424, symSize: 0x34 }
  - { offset: 0x22814, size: 0x8, addend: 0x0, symName: __ZZNSt8__format14__formatter_fpIcE5parseERSt26basic_format_parse_contextIcEENKUlvE0_clEv, symObjAddr: 0xC958, symBinAddr: 0x10000D458, symSize: 0x64 }
  - { offset: 0x2288C, size: 0x8, addend: 0x0, symName: __ZNKSt8__format15__formatter_intIcE6formatIyNS_10_Sink_iterIcEEEENSt20basic_format_contextIT0_cE8iteratorET_RS7_, symObjAddr: 0xC5E8, symBinAddr: 0x10000D0E8, symSize: 0x33C }
  - { offset: 0x22999, size: 0x8, addend: 0x0, symName: __ZNSt8__format15__formatter_intIcE8_M_parseIyEEPKcRSt26basic_format_parse_contextIcE, symObjAddr: 0xC5C0, symBinAddr: 0x10000D0C0, symSize: 0x28 }
  - { offset: 0x229DD, size: 0x8, addend: 0x0, symName: __ZNKSt8__format15__formatter_intIcE6formatIxNS_10_Sink_iterIcEEEENSt20basic_format_contextIT0_cE8iteratorET_RS7_, symObjAddr: 0xC268, symBinAddr: 0x10000CD68, symSize: 0x358 }
  - { offset: 0x22ADC, size: 0x8, addend: 0x0, symName: __ZNSt8__format15__formatter_intIcE8_M_parseIxEEPKcRSt26basic_format_parse_contextIcE, symObjAddr: 0xC240, symBinAddr: 0x10000CD40, symSize: 0x28 }
  - { offset: 0x22B20, size: 0x8, addend: 0x0, symName: __ZNKSt8__format15__formatter_intIcE6formatIjNS_10_Sink_iterIcEEEENSt20basic_format_contextIT0_cE8iteratorET_RS7_, symObjAddr: 0xBF04, symBinAddr: 0x10000CA04, symSize: 0x33C }
  - { offset: 0x22C2D, size: 0x8, addend: 0x0, symName: __ZNSt8__format15__formatter_intIcE8_M_parseIjEEPKcRSt26basic_format_parse_contextIcE, symObjAddr: 0xBEDC, symBinAddr: 0x10000C9DC, symSize: 0x28 }
  - { offset: 0x22C71, size: 0x8, addend: 0x0, symName: __ZNKSt8__format15__formatter_intIcE6formatIiNS_10_Sink_iterIcEEEENSt20basic_format_contextIT0_cE8iteratorET_RS7_, symObjAddr: 0xBB84, symBinAddr: 0x10000C684, symSize: 0x358 }
  - { offset: 0x22D70, size: 0x8, addend: 0x0, symName: __ZNSt8__format15__formatter_intIcE8_M_parseIiEEPKcRSt26basic_format_parse_contextIcE, symObjAddr: 0xBB5C, symBinAddr: 0x10000C65C, symSize: 0x28 }
  - { offset: 0x22DB4, size: 0x8, addend: 0x0, symName: __ZNKSt8__format15__formatter_intIcE6formatIhNS_10_Sink_iterIcEEEENSt20basic_format_contextIT0_cE8iteratorET_RS7_, symObjAddr: 0xB808, symBinAddr: 0x10000C308, symSize: 0x354 }
  - { offset: 0x22EC1, size: 0x8, addend: 0x0, symName: __ZNKSt8__format15__formatter_intIcE27_M_format_character_escapedINS_10_Sink_iterIcEEEENSt20basic_format_contextIT_cE8iteratorEcRS7_, symObjAddr: 0xB64C, symBinAddr: 0x10000C14C, symSize: 0x1BC }
  - { offset: 0x23092, size: 0x8, addend: 0x0, symName: __ZNKSt17basic_string_viewIcSt11char_traitsIcEE6substrEmm, symObjAddr: 0xB5C4, symBinAddr: 0x10000C0C4, symSize: 0x88 }
  - { offset: 0x230EF, size: 0x8, addend: 0x0, symName: __ZNKSt8__format14_Fixedbuf_sinkIcE4viewEv, symObjAddr: 0xB518, symBinAddr: 0x10000C018, symSize: 0xAC }
  - { offset: 0x2322B, size: 0x8, addend: 0x0, symName: __ZNSt4spanIcLm18446744073709551615EEC1ILm12EEERAT__c, symObjAddr: 0xB4BC, symBinAddr: 0x10000BFBC, symSize: 0x5C }
  - { offset: 0x23290, size: 0x8, addend: 0x0, symName: __ZNKSt8__format15__formatter_intIcE19_M_format_characterINS_10_Sink_iterIcEEEENSt20basic_format_contextIT_cE8iteratorEcRS7_, symObjAddr: 0xB464, symBinAddr: 0x10000BF64, symSize: 0x58 }
  - { offset: 0x23309, size: 0x8, addend: 0x0, symName: __ZNSt8__format15__formatter_intIcE8_M_parseIcEEPKcRSt26basic_format_parse_contextIcE, symObjAddr: 0xB3BC, symBinAddr: 0x10000BEBC, symSize: 0xA8 }
  - { offset: 0x23371, size: 0x8, addend: 0x0, symName: __ZNKSt8__format15__formatter_intIcE6formatINS_10_Sink_iterIcEEEENSt20basic_format_contextIT_cE8iteratorEbRS7_, symObjAddr: 0xB1EC, symBinAddr: 0x10000BCEC, symSize: 0x1D0 }
  - { offset: 0x2340B, size: 0x8, addend: 0x0, symName: __ZNSt8__format15__formatter_intIcE8_M_parseIbEEPKcRSt26basic_format_parse_contextIcE, symObjAddr: 0xB160, symBinAddr: 0x10000BC60, symSize: 0x8C }
  - { offset: 0x234BB, size: 0x8, addend: 0x0, symName: __ZNKSt6ranges8__access4_EndclIRA1_KDiEEDaOT_, symObjAddr: 0xB144, symBinAddr: 0x10000BC44, symSize: 0x1C }
  - { offset: 0x234FE, size: 0x8, addend: 0x0, symName: __ZNKSt6ranges8__access6_BeginclIRA1_KDiEEDaOT_, symObjAddr: 0xB12C, symBinAddr: 0x10000BC2C, symSize: 0x18 }
  - { offset: 0x2357D, size: 0x8, addend: 0x0, symName: __ZNKSt7__cxx1112basic_stringIcSt11char_traitsIcESaIcEE5emptyEv, symObjAddr: 0xB108, symBinAddr: 0x10000BC08, symSize: 0x24 }
  - { offset: 0x235A7, size: 0x8, addend: 0x0, symName: __ZNKSt17integral_constantImLm12EEcvmEv, symObjAddr: 0xB0F4, symBinAddr: 0x10000BBF4, symSize: 0x14 }
  - { offset: 0x235D1, size: 0x8, addend: 0x0, symName: __ZNSt7__cxx1112basic_stringIcSt11char_traitsIcESaIcEE6resizeEm, symObjAddr: 0xB0C8, symBinAddr: 0x10000BBC8, symSize: 0x2C }
  - { offset: 0x2360C, size: 0x8, addend: 0x0, symName: __ZNSt8__format5_SinkIcE8_M_resetESt4spanIcLm18446744073709551615EEm, symObjAddr: 0xB05C, symBinAddr: 0x10000BB5C, symSize: 0x6C }
  - { offset: 0x236D9, size: 0x8, addend: 0x0, symName: __ZNSt4spanIcLm18446744073709551615EEC1IRNSt7__cxx1112basic_stringIcSt11char_traitsIcESaIcEEEEEOT_, symObjAddr: 0xAFEC, symBinAddr: 0x10000BAEC, symSize: 0x70 }
  - { offset: 0x2373D, size: 0x8, addend: 0x0, symName: __ZNSt7__cxx1112basic_stringIcSt11char_traitsIcESaIcEE22__resize_and_overwriteIZNSt8__format9_Seq_sinkIS4_E10_M_reserveEmEUlT_T0_E_EEvmS9_, symObjAddr: 0xAEF4, symBinAddr: 0x10000B9F4, symSize: 0xF8 }
  - { offset: 0x2382C, size: 0x8, addend: 0x0, symName: __ZZNSt7__cxx1112basic_stringIcSt11char_traitsIcESaIcEE22__resize_and_overwriteIZNSt8__format9_Seq_sinkIS4_E10_M_reserveEmEUlT_T0_E_EEvmS9_EN11_TerminatorD1Ev, symObjAddr: 0xAEA4, symBinAddr: 0x10000B9A4, symSize: 0x34 }
  - { offset: 0x238B1, size: 0x8, addend: 0x0, symName: __ZNSt8__format9_Seq_sinkINSt7__cxx1112basic_stringIcSt11char_traitsIcESaIcEEEE10_M_reserveEm, symObjAddr: 0xA398, symBinAddr: 0x10000AE98, symSize: 0x110 }
  - { offset: 0x23944, size: 0x8, addend: 0x0, symName: __ZZNSt8__format9_Seq_sinkINSt7__cxx1112basic_stringIcSt11char_traitsIcESaIcEEEE10_M_reserveEmENKUlT_T0_E_clIPcmEEDaS8_S9_, symObjAddr: 0xAED8, symBinAddr: 0x10000B9D8, symSize: 0x1C }
  - { offset: 0x23A57, size: 0x8, addend: 0x0, symName: __ZNKSt6ranges9__copy_fnclIRSt4spanIcLm18446744073709551615EENSt8__format10_Sink_iterIcEEEENS_13in_out_resultINSt13__conditionalIX14borrowed_rangeIT_EEE4typeIDTcl7__begincl7declvalIRSA_EEEENS_8danglingEEET0_EEOSA_SH_, symObjAddr: 0xAE40, symBinAddr: 0x10000B940, symSize: 0x64 }
  - { offset: 0x23AD6, size: 0x8, addend: 0x0, symName: __ZNKSt4spanIcLm18446744073709551615EE3endEv, symObjAddr: 0xADFC, symBinAddr: 0x10000B8FC, symSize: 0x44 }
  - { offset: 0x23B33, size: 0x8, addend: 0x0, symName: __ZNKSt9formatterIocE6formatINSt8__format10_Sink_iterIcEEEENSt20basic_format_contextIT_cE8iteratorEoRS7_, symObjAddr: 0xADD0, symBinAddr: 0x10000B8D0, symSize: 0x2C }
  - { offset: 0x23BB8, size: 0x8, addend: 0x0, symName: __ZNKSt9formatterIncE6formatINSt8__format10_Sink_iterIcEEEENSt20basic_format_contextIT_cE8iteratorEnRS7_, symObjAddr: 0xADA4, symBinAddr: 0x10000B8A4, symSize: 0x2C }
  - { offset: 0x23CA3, size: 0x8, addend: 0x0, symName: __ZNKSt9formatterIPKvcE6formatINSt8__format10_Sink_iterIcEEEENSt20basic_format_contextIT_cE8iteratorES1_RS9_, symObjAddr: 0xABC4, symBinAddr: 0x10000B6C4, symSize: 0x1E0 }
  - { offset: 0x23E59, size: 0x8, addend: 0x0, symName: __ZNSt17basic_string_viewIcSt11char_traitsIcEEC1Ev, symObjAddr: 0xABA0, symBinAddr: 0x10000B6A0, symSize: 0x24 }
  - { offset: 0x23E7F, size: 0x8, addend: 0x0, symName: __ZNSt9formatterIPKvcE5parseERSt26basic_format_parse_contextIcE, symObjAddr: 0xAA28, symBinAddr: 0x10000B528, symSize: 0x178 }
  - { offset: 0x23F83, size: 0x8, addend: 0x0, symName: __ZZNSt9formatterIPKvcE5parseERSt26basic_format_parse_contextIcEENKUlvE_clEv, symObjAddr: 0xA990, symBinAddr: 0x10000B490, symSize: 0x34 }
  - { offset: 0x24096, size: 0x8, addend: 0x0, symName: __ZZNSt9formatterIPKvcE5parseERSt26basic_format_parse_contextIcEENKUlvE0_clEv, symObjAddr: 0xA9C4, symBinAddr: 0x10000B4C4, symSize: 0x64 }
  - { offset: 0x2411A, size: 0x8, addend: 0x0, symName: __ZNKSt9formatterISt17basic_string_viewIcSt11char_traitsIcEEcE6formatINSt8__format10_Sink_iterIcEEEENSt20basic_format_contextIT_cE8iteratorES3_RSB_, symObjAddr: 0xA964, symBinAddr: 0x10000B464, symSize: 0x2C }
  - { offset: 0x2419F, size: 0x8, addend: 0x0, symName: __ZNKSt9formatterIPKccE6formatINSt8__format10_Sink_iterIcEEEENSt20basic_format_contextIT_cE8iteratorES1_RS9_, symObjAddr: 0xA920, symBinAddr: 0x10000B420, symSize: 0x44 }
  - { offset: 0x24224, size: 0x8, addend: 0x0, symName: __ZNKSt9formatterIecE6formatINSt8__format10_Sink_iterIcEEEENSt20basic_format_contextIT_cE8iteratorEeRS7_, symObjAddr: 0xA8F4, symBinAddr: 0x10000B3F4, symSize: 0x2C }
  - { offset: 0x242A9, size: 0x8, addend: 0x0, symName: __ZNKSt9formatterIdcE6formatINSt8__format10_Sink_iterIcEEEENSt20basic_format_contextIT_cE8iteratorEdRS7_, symObjAddr: 0xA8C8, symBinAddr: 0x10000B3C8, symSize: 0x2C }
  - { offset: 0x2432E, size: 0x8, addend: 0x0, symName: __ZNKSt9formatterIfcE6formatINSt8__format10_Sink_iterIcEEEENSt20basic_format_contextIT_cE8iteratorEfRS7_, symObjAddr: 0xA89C, symBinAddr: 0x10000B39C, symSize: 0x2C }
  - { offset: 0x243B3, size: 0x8, addend: 0x0, symName: __ZNKSt9formatterIycE6formatINSt8__format10_Sink_iterIcEEEENSt20basic_format_contextIT_cE8iteratorEyRS7_, symObjAddr: 0xA870, symBinAddr: 0x10000B370, symSize: 0x2C }
  - { offset: 0x24438, size: 0x8, addend: 0x0, symName: __ZNKSt9formatterIxcE6formatINSt8__format10_Sink_iterIcEEEENSt20basic_format_contextIT_cE8iteratorExRS7_, symObjAddr: 0xA844, symBinAddr: 0x10000B344, symSize: 0x2C }
  - { offset: 0x244BD, size: 0x8, addend: 0x0, symName: __ZNKSt9formatterIjcE6formatINSt8__format10_Sink_iterIcEEEENSt20basic_format_contextIT_cE8iteratorEjRS7_, symObjAddr: 0xA818, symBinAddr: 0x10000B318, symSize: 0x2C }
  - { offset: 0x24542, size: 0x8, addend: 0x0, symName: __ZNKSt9formatterIicE6formatINSt8__format10_Sink_iterIcEEEENSt20basic_format_contextIT_cE8iteratorEiRS7_, symObjAddr: 0xA7EC, symBinAddr: 0x10000B2EC, symSize: 0x2C }
  - { offset: 0x245C7, size: 0x8, addend: 0x0, symName: __ZNKSt9formatterIccE6formatINSt8__format10_Sink_iterIcEEEENSt20basic_format_contextIT_cE8iteratorEcRS7_, symObjAddr: 0xA74C, symBinAddr: 0x10000B24C, symSize: 0xA0 }
  - { offset: 0x2461C, size: 0x8, addend: 0x0, symName: __ZNSt9formatterIccE5parseERSt26basic_format_parse_contextIcE, symObjAddr: 0xA728, symBinAddr: 0x10000B228, symSize: 0x24 }
  - { offset: 0x24663, size: 0x8, addend: 0x0, symName: __ZNKSt9formatterIbcE6formatINSt8__format10_Sink_iterIcEEEENSt20basic_format_contextIT_cE8iteratorEbRS7_, symObjAddr: 0xA6F8, symBinAddr: 0x10000B1F8, symSize: 0x30 }
  - { offset: 0x24700, size: 0x8, addend: 0x0, symName: __ZNKSt20basic_format_contextINSt8__format10_Sink_iterIcEEcE3argEm, symObjAddr: 0xA5F8, symBinAddr: 0x10000B0F8, symSize: 0x100 }
  - { offset: 0x247B3, size: 0x8, addend: 0x0, symName: __ZNSt20basic_format_contextINSt8__format10_Sink_iterIcEEcE10advance_toES2_, symObjAddr: 0xA5D0, symBinAddr: 0x10000B0D0, symSize: 0x28 }
  - { offset: 0x2480B, size: 0x8, addend: 0x0, symName: __ZNSt8__format7__writeINS_10_Sink_iterIcEEcEET_S3_St17basic_string_viewIT0_St11char_traitsIS5_EE, symObjAddr: 0xA57C, symBinAddr: 0x10000B07C, symSize: 0x54 }
  - { offset: 0x24886, size: 0x8, addend: 0x0, symName: __ZNSt8__format9_Seq_sinkINSt7__cxx1112basic_stringIcSt11char_traitsIcESaIcEEEE7_M_bumpEm, symObjAddr: 0xA4A8, symBinAddr: 0x10000AFA8, symSize: 0xD4 }
  - { offset: 0x2498A, size: 0x8, addend: 0x0, symName: __ZNKSt6ranges8__access5_SizeclIRNSt7__cxx1112basic_stringIcSt11char_traitsIcESaIcEEEEEDaOT_, symObjAddr: 0xA378, symBinAddr: 0x10000AE78, symSize: 0x20 }
  - { offset: 0x249DA, size: 0x8, addend: 0x0, symName: __ZNKSt6ranges8__access5_DataclIRNSt7__cxx1112basic_stringIcSt11char_traitsIcESaIcEEEEEDaOT_, symObjAddr: 0xA358, symBinAddr: 0x10000AE58, symSize: 0x20 }
  - { offset: 0x24A1E, size: 0x8, addend: 0x0, symName: __ZNSt8__format10_Iter_sinkIcNS_10_Sink_iterIcEEE11_M_overflowEv, symObjAddr: 0xA198, symBinAddr: 0x10000AC98, symSize: 0x1C0 }
  - { offset: 0x24B93, size: 0x8, addend: 0x0, symName: __ZNKSt6ranges8__access4_EndclIRSt4spanIcLm18446744073709551615EEEEDaOT_, symObjAddr: 0xA178, symBinAddr: 0x10000AC78, symSize: 0x20 }
  - { offset: 0x24BD6, size: 0x8, addend: 0x0, symName: __ZNKSt6ranges8__access6_BeginclIRSt4spanIcLm18446744073709551615EEEEDaOT_, symObjAddr: 0xA158, symBinAddr: 0x10000AC58, symSize: 0x20 }
  - { offset: 0x24C19, size: 0x8, addend: 0x0, symName: __ZNSt8__format19_Formatting_scannerINS_10_Sink_iterIcEEcE13_M_format_argEm, symObjAddr: 0xA0F8, symBinAddr: 0x10000ABF8, symSize: 0x60 }
  - { offset: 0x24C7F, size: 0x8, addend: 0x0, symName: __ZZNSt8__format19_Formatting_scannerINS_10_Sink_iterIcEEcE13_M_format_argEmENKUlRT_E_clIoEEDaS5_, symObjAddr: 0x9D60, symBinAddr: 0x10000A860, symSize: 0xB0 }
  - { offset: 0x24D56, size: 0x8, addend: 0x0, symName: __ZZNSt8__format19_Formatting_scannerINS_10_Sink_iterIcEEcE13_M_format_argEmENKUlRT_E_clInEEDaS5_, symObjAddr: 0x9CB0, symBinAddr: 0x10000A7B0, symSize: 0xB0 }
  - { offset: 0x24E23, size: 0x8, addend: 0x0, symName: __ZZNSt8__format19_Formatting_scannerINS_10_Sink_iterIcEEcE13_M_format_argEmENKUlRT_E_clINSt16basic_format_argISt20basic_format_contextIS2_cEE6handleEEEDaS5_, symObjAddr: 0x9C40, symBinAddr: 0x10000A740, symSize: 0x70 }
  - { offset: 0x24ED4, size: 0x8, addend: 0x0, symName: __ZZNSt8__format19_Formatting_scannerINS_10_Sink_iterIcEEcE13_M_format_argEmENKUlRT_E_clIPKvEEDaS5_, symObjAddr: 0x9BAC, symBinAddr: 0x10000A6AC, symSize: 0x94 }
  - { offset: 0x24F77, size: 0x8, addend: 0x0, symName: __ZZNSt8__format19_Formatting_scannerINS_10_Sink_iterIcEEcE13_M_format_argEmENKUlRT_E_clISt17basic_string_viewIcSt11char_traitsIcEEEEDaS5_, symObjAddr: 0x9B04, symBinAddr: 0x10000A604, symSize: 0xA8 }
  - { offset: 0x25044, size: 0x8, addend: 0x0, symName: __ZZNSt8__format19_Formatting_scannerINS_10_Sink_iterIcEEcE13_M_format_argEmENKUlRT_E_clIPKcEEDaS5_, symObjAddr: 0x9A64, symBinAddr: 0x10000A564, symSize: 0xA0 }
  - { offset: 0x25111, size: 0x8, addend: 0x0, symName: __ZZNSt8__format19_Formatting_scannerINS_10_Sink_iterIcEEcE13_M_format_argEmENKUlRT_E_clIeEEDaS5_, symObjAddr: 0x99C0, symBinAddr: 0x10000A4C0, symSize: 0xA4 }
  - { offset: 0x251DE, size: 0x8, addend: 0x0, symName: __ZZNSt8__format19_Formatting_scannerINS_10_Sink_iterIcEEcE13_M_format_argEmENKUlRT_E_clIdEEDaS5_, symObjAddr: 0x991C, symBinAddr: 0x10000A41C, symSize: 0xA4 }
  - { offset: 0x252AB, size: 0x8, addend: 0x0, symName: __ZZNSt8__format19_Formatting_scannerINS_10_Sink_iterIcEEcE13_M_format_argEmENKUlRT_E_clIfEEDaS5_, symObjAddr: 0x9878, symBinAddr: 0x10000A378, symSize: 0xA4 }
  - { offset: 0x25378, size: 0x8, addend: 0x0, symName: __ZZNSt8__format19_Formatting_scannerINS_10_Sink_iterIcEEcE13_M_format_argEmENKUlRT_E_clIyEEDaS5_, symObjAddr: 0x97D8, symBinAddr: 0x10000A2D8, symSize: 0xA0 }
  - { offset: 0x25445, size: 0x8, addend: 0x0, symName: __ZZNSt8__format19_Formatting_scannerINS_10_Sink_iterIcEEcE13_M_format_argEmENKUlRT_E_clIxEEDaS5_, symObjAddr: 0x9738, symBinAddr: 0x10000A238, symSize: 0xA0 }
  - { offset: 0x25512, size: 0x8, addend: 0x0, symName: __ZZNSt8__format19_Formatting_scannerINS_10_Sink_iterIcEEcE13_M_format_argEmENKUlRT_E_clIjEEDaS5_, symObjAddr: 0x9698, symBinAddr: 0x10000A198, symSize: 0xA0 }
  - { offset: 0x255DF, size: 0x8, addend: 0x0, symName: __ZZNSt8__format19_Formatting_scannerINS_10_Sink_iterIcEEcE13_M_format_argEmENKUlRT_E_clIiEEDaS5_, symObjAddr: 0x95F8, symBinAddr: 0x10000A0F8, symSize: 0xA0 }
  - { offset: 0x256AC, size: 0x8, addend: 0x0, symName: __ZZNSt8__format19_Formatting_scannerINS_10_Sink_iterIcEEcE13_M_format_argEmENKUlRT_E_clIcEEDaS5_, symObjAddr: 0x9564, symBinAddr: 0x10000A064, symSize: 0x94 }
  - { offset: 0x2574F, size: 0x8, addend: 0x0, symName: __ZZNSt8__format19_Formatting_scannerINS_10_Sink_iterIcEEcE13_M_format_argEmENKUlRT_E_clIbEEDaS5_, symObjAddr: 0x94C4, symBinAddr: 0x100009FC4, symSize: 0xA0 }
  - { offset: 0x2581C, size: 0x8, addend: 0x0, symName: __ZZNSt8__format19_Formatting_scannerINS_10_Sink_iterIcEEcE13_M_format_argEmENKUlRT_E_clISt9monostateEEDaS5_, symObjAddr: 0x94B0, symBinAddr: 0x100009FB0, symSize: 0x14 }
  - { offset: 0x25887, size: 0x8, addend: 0x0, symName: __ZNSt8__format18__visit_format_argIZNS_19_Formatting_scannerINS_10_Sink_iterIcEEcE13_M_format_argEmEUlRT_E_St20basic_format_contextIS3_cEEEDcOS5_St16basic_format_argIT0_E, symObjAddr: 0xA0B4, symBinAddr: 0x10000ABB4, symSize: 0x44 }
  - { offset: 0x258FC, size: 0x8, addend: 0x0, symName: __ZNSt16basic_format_argISt20basic_format_contextINSt8__format10_Sink_iterIcEEcEE8_M_visitIZNS1_19_Formatting_scannerIS3_cE13_M_format_argEmEUlRT_E_EEDcOS9_NS1_6_Arg_tE, symObjAddr: 0x9E10, symBinAddr: 0x10000A910, symSize: 0x2A4 }
  - { offset: 0x25BD1, size: 0x8, addend: 0x0, symName: __ZNSt8__format19_Formatting_scannerINS_10_Sink_iterIcEEcE11_M_on_charsEPKc, symObjAddr: 0x944C, symBinAddr: 0x100009F4C, symSize: 0x64 }
  - { offset: 0x25C33, size: 0x8, addend: 0x0, symName: __ZNSt15__new_allocatorIcE8allocateEmPKv, symObjAddr: 0x93E8, symBinAddr: 0x100009EE8, symSize: 0x64 }
  - { offset: 0x25D59, size: 0x8, addend: 0x0, symName: __ZNKSt4lessIPKcEclES1_S1_, symObjAddr: 0x9394, symBinAddr: 0x100009E94, symSize: 0x54 }
  - { offset: 0x25E00, size: 0x8, addend: 0x0, symName: __ZNSt15__new_allocatorIcE10deallocateEPcm, symObjAddr: 0x936C, symBinAddr: 0x100009E6C, symSize: 0x28 }
  - { offset: 0x25E4A, size: 0x8, addend: 0x0, symName: __ZNSt16basic_format_argISt20basic_format_contextINSt8__format10_Sink_iterIcEEcEE6_M_setISt17basic_string_viewIcSt11char_traitsIcEEEEvT_, symObjAddr: 0x9320, symBinAddr: 0x100009E20, symSize: 0x4C }
  - { offset: 0x25EDF, size: 0x8, addend: 0x0, symName: __ZNSt7__cxx1112basic_stringIcSt11char_traitsIcESaIcEE4dataEv, symObjAddr: 0x9304, symBinAddr: 0x100009E04, symSize: 0x1C }
  - { offset: 0x25F09, size: 0x8, addend: 0x0, symName: __ZNSt16basic_format_argISt20basic_format_contextINSt8__format10_Sink_iterIcEEcEE6_M_setIPKcEEvT_, symObjAddr: 0x92B8, symBinAddr: 0x100009DB8, symSize: 0x4C }
  - { offset: 0x25FE0, size: 0x8, addend: 0x0, symName: __ZNKSt4spanIcLm18446744073709551615EE7subspanEmm, symObjAddr: 0x913C, symBinAddr: 0x100009C3C, symSize: 0x17C }
  - { offset: 0x26063, size: 0x8, addend: 0x0, symName: __ZNSt7__cxx1112basic_stringIcSt11char_traitsIcESaIcEE9_M_mutateEmmPKcm, symObjAddr: 0x8FE4, symBinAddr: 0x100009AE4, symSize: 0x158 }
  - { offset: 0x26109, size: 0x8, addend: 0x0, symName: __ZNSt7__cxx1112basic_stringIcSt11char_traitsIcESaIcEE15_M_replace_coldEPcmPKcmm, symObjAddr: 0x8E4C, symBinAddr: 0x10000994C, symSize: 0x198 }
  - { offset: 0x261CC, size: 0x8, addend: 0x0, symName: __ZNSt7__cxx1112basic_stringIcSt11char_traitsIcESaIcEE7_S_moveEPcPKcm, symObjAddr: 0x8E00, symBinAddr: 0x100009900, symSize: 0x4C }
  - { offset: 0x2621C, size: 0x8, addend: 0x0, symName: __ZNKSt7__cxx1112basic_stringIcSt11char_traitsIcESaIcEE11_M_disjunctEPKc, symObjAddr: 0x8D7C, symBinAddr: 0x10000987C, symSize: 0x84 }
  - { offset: 0x262FC, size: 0x8, addend: 0x0, symName: __ZNSt16basic_format_argISt20basic_format_contextINSt8__format10_Sink_iterIcEEcEEC1INSt7__cxx1112basic_stringIcSt11char_traitsIcESaIcEEEEERT_, symObjAddr: 0x8D18, symBinAddr: 0x100009818, symSize: 0x64 }
  - { offset: 0x263A7, size: 0x8, addend: 0x0, symName: __ZNSt16basic_format_argISt20basic_format_contextINSt8__format10_Sink_iterIcEEcEEC1IA1_KcEERT_, symObjAddr: 0x8CE4, symBinAddr: 0x1000097E4, symSize: 0x34 }
  - { offset: 0x26423, size: 0x8, addend: 0x0, symName: __ZNSt7__cxx1112basic_stringIcSt11char_traitsIcESaIcEE9_M_appendEPKcm, symObjAddr: 0x8C1C, symBinAddr: 0x10000971C, symSize: 0xC8 }
  - { offset: 0x26480, size: 0x8, addend: 0x0, symName: __ZNKSt7__cxx1112basic_stringIcSt11char_traitsIcESaIcEE15_M_check_lengthEmmPKc, symObjAddr: 0x8BA8, symBinAddr: 0x1000096A8, symSize: 0x74 }
  - { offset: 0x2651A, size: 0x8, addend: 0x0, symName: __ZNSt4spanIcLm18446744073709551615EEC1IPcEET_m, symObjAddr: 0x8B54, symBinAddr: 0x100009654, symSize: 0x54 }
  - { offset: 0x265E4, size: 0x8, addend: 0x0, symName: __ZNSt8__format5_SinkIcE7_M_bumpEm, symObjAddr: 0x8B10, symBinAddr: 0x100009610, symSize: 0x44 }
  - { offset: 0x26678, size: 0x8, addend: 0x0, symName: __ZNKSt17basic_format_argsISt20basic_format_contextINSt8__format10_Sink_iterIcEEcEE7_M_typeEm, symObjAddr: 0x8AC4, symBinAddr: 0x1000095C4, symSize: 0x4C }
  - { offset: 0x266F8, size: 0x8, addend: 0x0, symName: __ZNKSt17integral_constantImLm256EEcvmEv, symObjAddr: 0x8AB0, symBinAddr: 0x1000095B0, symSize: 0x14 }
  - { offset: 0x26722, size: 0x8, addend: 0x0, symName: __ZNSt17basic_string_viewIcSt11char_traitsIcEE13remove_suffixEm, symObjAddr: 0x8A38, symBinAddr: 0x100009538, symSize: 0x78 }
  - { offset: 0x26769, size: 0x8, addend: 0x0, symName: __ZSt9__advanceIPKjlEvRT_T0_St26random_access_iterator_tag, symObjAddr: 0x8A00, symBinAddr: 0x100009500, symSize: 0x38 }
  - { offset: 0x26809, size: 0x8, addend: 0x0, symName: __ZSt9__advanceIPKDilEvRT_T0_St26random_access_iterator_tag, symObjAddr: 0x89C8, symBinAddr: 0x1000094C8, symSize: 0x38 }
  - { offset: 0x2685D, size: 0x8, addend: 0x0, symName: __ZSt13__countl_zeroImEiT_, symObjAddr: 0x89A8, symBinAddr: 0x1000094A8, symSize: 0x20 }
  - { offset: 0x268A3, size: 0x8, addend: 0x0, symName: __ZNKSt7__cxx1112basic_stringIcSt11char_traitsIcESaIcEE8_M_checkEmPKc, symObjAddr: 0x8930, symBinAddr: 0x100009430, symSize: 0x78 }
  - { offset: 0x268F3, size: 0x8, addend: 0x0, symName: __ZNSt7__cxx1112basic_stringIcSt11char_traitsIcESaIcEE10_M_replaceEmmPKcm, symObjAddr: 0x86C0, symBinAddr: 0x1000091C0, symSize: 0x270 }
  - { offset: 0x26AC1, size: 0x8, addend: 0x0, symName: __ZNSt7__cxx1112basic_stringIcSt11char_traitsIcESaIcEE11_S_allocateERS3_m, symObjAddr: 0x8624, symBinAddr: 0x100009124, symSize: 0x9C }
  - { offset: 0x26B7C, size: 0x8, addend: 0x0, symName: __ZNSt19__ptr_traits_ptr_toIPKcS0_Lb0EE10pointer_toERS0_, symObjAddr: 0x85FC, symBinAddr: 0x1000090FC, symSize: 0x28 }
  - { offset: 0x26C1D, size: 0x8, addend: 0x0, symName: __ZNSt17basic_string_viewIcSt11char_traitsIcEE10_S_compareEmm, symObjAddr: 0x85A4, symBinAddr: 0x1000090A4, symSize: 0x58 }
  - { offset: 0x26C69, size: 0x8, addend: 0x0, symName: __ZNSt8__format10_Arg_storeISt20basic_format_contextINS_10_Sink_iterIcEEcEJSt17basic_string_viewIcSt11char_traitsIcEEEE11_S_make_eltINSt7__cxx1112basic_stringIcS7_SaIcEEEEENS_10_Arg_valueIS4_EERT_, symObjAddr: 0x8580, symBinAddr: 0x100009080, symSize: 0x24 }
  - { offset: 0x26CAD, size: 0x8, addend: 0x0, symName: __ZNSt8__format10_Arg_storeISt20basic_format_contextINS_10_Sink_iterIcEEcEJPKcEE11_S_make_eltIA1_S5_EENS_10_Arg_valueIS4_EERT_, symObjAddr: 0x855C, symBinAddr: 0x10000905C, symSize: 0x24 }
  - { offset: 0x26D0B, size: 0x8, addend: 0x0, symName: __ZNSt7__cxx1112basic_stringIcSt11char_traitsIcESaIcEE6appendEPKcm, symObjAddr: 0x8518, symBinAddr: 0x100009018, symSize: 0x44 }
  - { offset: 0x26D57, size: 0x8, addend: 0x0, symName: __ZNKSt4spanIcLm18446744073709551615EE5firstEm, symObjAddr: 0x848C, symBinAddr: 0x100008F8C, symSize: 0x8C }
  - { offset: 0x26DE5, size: 0x8, addend: 0x0, symName: __ZNKSt4spanIcLm18446744073709551615EE5beginEv, symObjAddr: 0x8460, symBinAddr: 0x100008F60, symSize: 0x2C }
  - { offset: 0x26E39, size: 0x8, addend: 0x0, symName: __ZNSt20basic_format_contextINSt8__format10_Sink_iterIcEEcE3outEv, symObjAddr: 0x843C, symBinAddr: 0x100008F3C, symSize: 0x24 }
  - { offset: 0x26EBD, size: 0x8, addend: 0x0, symName: __ZNSt8__format19_Formatting_scannerINS_10_Sink_iterIcEEcEC1ERSt20basic_format_contextIS2_cESt17basic_string_viewIcSt11char_traitsIcEE, symObjAddr: 0x83EC, symBinAddr: 0x100008EEC, symSize: 0x50 }
  - { offset: 0x26F39, size: 0x8, addend: 0x0, symName: __ZNSt20basic_format_contextINSt8__format10_Sink_iterIcEEcEC1ESt17basic_format_argsIS3_ES2_RKSt6locale, symObjAddr: 0x839C, symBinAddr: 0x100008E9C, symSize: 0x50 }
  - { offset: 0x26FD1, size: 0x8, addend: 0x0, symName: __ZNSt20basic_format_contextINSt8__format10_Sink_iterIcEEcEC1ESt17basic_format_argsIS3_ES2_, symObjAddr: 0x8344, symBinAddr: 0x100008E44, symSize: 0x58 }
  - { offset: 0x2704E, size: 0x8, addend: 0x0, symName: __ZNSt8__format5_SinkIcE12_Reservation7_M_bumpEm, symObjAddr: 0x8304, symBinAddr: 0x100008E04, symSize: 0x40 }
  - { offset: 0x27089, size: 0x8, addend: 0x0, symName: __ZNKSt8__format5_SinkIcE12_Reservation3getEv, symObjAddr: 0x82DC, symBinAddr: 0x100008DDC, symSize: 0x28 }
  - { offset: 0x270D7, size: 0x8, addend: 0x0, symName: __ZNKSt8__format5_SinkIcE12_ReservationcvbEv, symObjAddr: 0x82B8, symBinAddr: 0x100008DB8, symSize: 0x24 }
  - { offset: 0x27101, size: 0x8, addend: 0x0, symName: __ZNSt8__format5_SinkIcE10_M_reserveEm, symObjAddr: 0x8124, symBinAddr: 0x100008C24, symSize: 0x194 }
  - { offset: 0x2737A, size: 0x8, addend: 0x0, symName: __ZNSt4spanIcLm18446744073709551615EEC1ILm256EEERAT__c, symObjAddr: 0x80C8, symBinAddr: 0x100008BC8, symSize: 0x5C }
  - { offset: 0x273E0, size: 0x8, addend: 0x0, symName: __ZN9__gnu_cxx5__ops16_Iter_equals_valIKDiEclIPS2_EEbT_, symObjAddr: 0x8094, symBinAddr: 0x100008B94, symSize: 0x34 }
  - { offset: 0x2744C, size: 0x8, addend: 0x0, symName: __ZN9__gnu_cxx5__ops16_Iter_equals_valIKDiEC1ERS2_, symObjAddr: 0x8070, symBinAddr: 0x100008B70, symSize: 0x24 }
  - { offset: 0x27487, size: 0x8, addend: 0x0, symName: __ZNK9__gnu_cxx5__ops14_Iter_less_valclIPKjS3_EEbT_RT0_, symObjAddr: 0x803C, symBinAddr: 0x100008B3C, symSize: 0x34 }
  - { offset: 0x2755B, size: 0x8, addend: 0x0, symName: __ZNK9__gnu_cxx5__ops14_Val_less_iterclIKDiPS3_EEbRT_T0_, symObjAddr: 0x8008, symBinAddr: 0x100008B08, symSize: 0x34 }
  - { offset: 0x275F4, size: 0x8, addend: 0x0, symName: __ZSt11__bit_widthImEiT_, symObjAddr: 0x7FD8, symBinAddr: 0x100008AD8, symSize: 0x30 }
  - { offset: 0x27663, size: 0x8, addend: 0x0, symName: __ZNSt7__cxx1112basic_stringIcSt11char_traitsIcESaIcEE13_S_copy_charsIPKcEEvPcT_S9_, symObjAddr: 0x7F90, symBinAddr: 0x100008A90, symSize: 0x48 }
  - { offset: 0x27707, size: 0x8, addend: 0x0, symName: __ZNSt7__cxx1112basic_stringIcSt11char_traitsIcESaIcEE7_S_copyEPcPKcm, symObjAddr: 0x7F44, symBinAddr: 0x100008A44, symSize: 0x4C }
  - { offset: 0x2775A, size: 0x8, addend: 0x0, symName: __ZNSt7__cxx1112basic_stringIcSt11char_traitsIcESaIcEE9_M_createERmm, symObjAddr: 0x7E50, symBinAddr: 0x100008950, symSize: 0xF4 }
  - { offset: 0x277A4, size: 0x8, addend: 0x0, symName: __ZNKSt7__cxx1112basic_stringIcSt11char_traitsIcESaIcEE13_M_local_dataEv, symObjAddr: 0x7E30, symBinAddr: 0x100008930, symSize: 0x20 }
  - { offset: 0x277CE, size: 0x8, addend: 0x0, symName: __ZNSt7__cxx1112basic_stringIcSt11char_traitsIcESaIcEE10_M_destroyEm, symObjAddr: 0x7D98, symBinAddr: 0x100008898, symSize: 0x98 }
  - { offset: 0x278B8, size: 0x8, addend: 0x0, symName: __ZNKSt17basic_string_viewIcSt11char_traitsIcEE7compareES2_, symObjAddr: 0x7D30, symBinAddr: 0x100008830, symSize: 0x68 }
  - { offset: 0x2794B, size: 0x8, addend: 0x0, symName: __ZNSt4pairItPKcEC1ERKtRKS1_Qcl16_S_constructibleIRKT_RKT0_EE, symObjAddr: 0x7CF4, symBinAddr: 0x1000087F4, symSize: 0x3C }
  - { offset: 0x279D7, size: 0x8, addend: 0x0, symName: __ZNSt4pairItPKcEC1IiS1_EEOT_OT0_, symObjAddr: 0x7CA4, symBinAddr: 0x1000087A4, symSize: 0x50 }
  - { offset: 0x27AAE, size: 0x8, addend: 0x0, symName: __ZNSt17basic_format_argsISt20basic_format_contextINSt8__format10_Sink_iterIcEEcEEC1IJSt17basic_string_viewIcSt11char_traitsIcEEEEERKNS1_10_Arg_storeIS4_JDpT_EEE, symObjAddr: 0x7C44, symBinAddr: 0x100008744, symSize: 0x60 }
  - { offset: 0x27B74, size: 0x8, addend: 0x0, symName: __ZNSt17basic_format_argsISt20basic_format_contextINSt8__format10_Sink_iterIcEEcEEC1IJPKcEEERKNS1_10_Arg_storeIS4_JDpT_EEE, symObjAddr: 0x7BE4, symBinAddr: 0x1000086E4, symSize: 0x60 }
  - { offset: 0x27BAE, size: 0x8, addend: 0x0, symName: __ZNSt16reverse_iteratorIPKNSt8__format6_Arg_tEEppEv, symObjAddr: 0x7BBC, symBinAddr: 0x1000086BC, symSize: 0x28 }
  - { offset: 0x27BD8, size: 0x8, addend: 0x0, symName: __ZNKSt16reverse_iteratorIPKNSt8__format6_Arg_tEE4baseEv, symObjAddr: 0x7BA4, symBinAddr: 0x1000086A4, symSize: 0x18 }
  - { offset: 0x27BFE, size: 0x8, addend: 0x0, symName: __ZSteqIPKNSt8__format6_Arg_tEEbRKSt16reverse_iteratorIT_ES8_QrqXeqcldtfL0p_4baseEcldtfL0p0_4baseERSt14convertible_toIbEE, symObjAddr: 0x7B64, symBinAddr: 0x100008664, symSize: 0x40 }
  - { offset: 0x27C46, size: 0x8, addend: 0x0, symName: __ZNKSt5arrayINSt8__format6_Arg_tELm1EE5beginEv, symObjAddr: 0x7B48, symBinAddr: 0x100008648, symSize: 0x1C }
  - { offset: 0x27C70, size: 0x8, addend: 0x0, symName: __ZNKSt5arrayINSt8__format6_Arg_tELm1EE4rendEv, symObjAddr: 0x7B10, symBinAddr: 0x100008610, symSize: 0x38 }
  - { offset: 0x27CC1, size: 0x8, addend: 0x0, symName: __ZNSt16reverse_iteratorIPKNSt8__format6_Arg_tEEC1ES3_, symObjAddr: 0x7AEC, symBinAddr: 0x1000085EC, symSize: 0x24 }
  - { offset: 0x27CF0, size: 0x8, addend: 0x0, symName: __ZNKSt5arrayINSt8__format6_Arg_tELm1EE4dataEv, symObjAddr: 0x7AD8, symBinAddr: 0x1000085D8, symSize: 0x14 }
  - { offset: 0x27D1A, size: 0x8, addend: 0x0, symName: __ZNKSt5arrayINSt8__format6_Arg_tELm1EE3endEv, symObjAddr: 0x7AB8, symBinAddr: 0x1000085B8, symSize: 0x20 }
  - { offset: 0x27D44, size: 0x8, addend: 0x0, symName: __ZNKSt5arrayINSt8__format6_Arg_tELm1EE6rbeginEv, symObjAddr: 0x7A80, symBinAddr: 0x100008580, symSize: 0x38 }
  - { offset: 0x27D70, size: 0x8, addend: 0x0, symName: __ZNSt8__format16__pack_arg_typesILi5ELm1EEEDaRKSt5arrayINS_6_Arg_tEXT0_EE, symObjAddr: 0x79F0, symBinAddr: 0x1000084F0, symSize: 0x90 }
  - { offset: 0x27DE7, size: 0x8, addend: 0x0, symName: __ZNKSt16reverse_iteratorIPKNSt8__format6_Arg_tEEdeEv, symObjAddr: 0x79C4, symBinAddr: 0x1000084C4, symSize: 0x2C }
  - { offset: 0x27EA8, size: 0x8, addend: 0x0, symName: __ZNSt17basic_format_argsISt20basic_format_contextINSt8__format10_Sink_iterIcEEcEEC1IJEEERKNS1_10_Arg_storeIS4_JDpT_EEE, symObjAddr: 0x7984, symBinAddr: 0x100008484, symSize: 0x40 }
  - { offset: 0x27EF2, size: 0x8, addend: 0x0, symName: __ZNSt8__format9_Seq_sinkINSt7__cxx1112basic_stringIcSt11char_traitsIcESaIcEEEE11_M_overflowEv, symObjAddr: 0x78A0, symBinAddr: 0x1000083A0, symSize: 0xE4 }
  - { offset: 0x27FE8, size: 0x8, addend: 0x0, symName: __ZNKSt4spanIcLm18446744073709551615EE4dataEv, symObjAddr: 0x7888, symBinAddr: 0x100008388, symSize: 0x18 }
  - { offset: 0x28012, size: 0x8, addend: 0x0, symName: __ZNKSt4spanIcLm18446744073709551615EE5emptyEv, symObjAddr: 0x7860, symBinAddr: 0x100008360, symSize: 0x28 }
  - { offset: 0x2803C, size: 0x8, addend: 0x0, symName: __ZNKSt4spanIcLm18446744073709551615EE4sizeEv, symObjAddr: 0x783C, symBinAddr: 0x10000833C, symSize: 0x24 }
  - { offset: 0x280A2, size: 0x8, addend: 0x0, symName: __ZNSt8__format15__do_vformat_toINS_10_Sink_iterIcEEcSt20basic_format_contextIS2_cEEET_S5_St17basic_string_viewIT0_St11char_traitsIS7_EERKSt17basic_format_argsIT1_EPKSt6locale, symObjAddr: 0x753C, symBinAddr: 0x10000803C, symSize: 0x300 }
  - { offset: 0x281C7, size: 0x8, addend: 0x0, symName: __ZZNSt8__format15__do_vformat_toINS_10_Sink_iterIcEEcSt20basic_format_contextIS2_cEEET_S5_St17basic_string_viewIT0_St11char_traitsIS7_EERKSt17basic_format_argsIT1_EPKSt6localeENKUlRS5_E_clIoEEDaSJ_, symObjAddr: 0x7218, symBinAddr: 0x100007D18, symSize: 0x18 }
  - { offset: 0x28242, size: 0x8, addend: 0x0, symName: __ZZNSt8__format15__do_vformat_toINS_10_Sink_iterIcEEcSt20basic_format_contextIS2_cEEET_S5_St17basic_string_viewIT0_St11char_traitsIS7_EERKSt17basic_format_argsIT1_EPKSt6localeENKUlRS5_E_clInEEDaSJ_, symObjAddr: 0x7200, symBinAddr: 0x100007D00, symSize: 0x18 }
  - { offset: 0x282B3, size: 0x8, addend: 0x0, symName: __ZZNSt8__format15__do_vformat_toINS_10_Sink_iterIcEEcSt20basic_format_contextIS2_cEEET_S5_St17basic_string_viewIT0_St11char_traitsIS7_EERKSt17basic_format_argsIT1_EPKSt6localeENKUlRS5_E_clINSt16basic_format_argIS4_E6handleEEEDaSJ_, symObjAddr: 0x71E8, symBinAddr: 0x100007CE8, symSize: 0x18 }
  - { offset: 0x28324, size: 0x8, addend: 0x0, symName: __ZZNSt8__format15__do_vformat_toINS_10_Sink_iterIcEEcSt20basic_format_contextIS2_cEEET_S5_St17basic_string_viewIT0_St11char_traitsIS7_EERKSt17basic_format_argsIT1_EPKSt6localeENKUlRS5_E_clIPKvEEDaSJ_, symObjAddr: 0x71D0, symBinAddr: 0x100007CD0, symSize: 0x18 }
  - { offset: 0x28395, size: 0x8, addend: 0x0, symName: __ZZNSt8__format15__do_vformat_toINS_10_Sink_iterIcEEcSt20basic_format_contextIS2_cEEET_S5_St17basic_string_viewIT0_St11char_traitsIS7_EERKSt17basic_format_argsIT1_EPKSt6localeENKUlRS5_E_clIS6_IcS8_IcEEEEDaSJ_, symObjAddr: 0x7118, symBinAddr: 0x100007C18, symSize: 0xB8 }
  - { offset: 0x2845F, size: 0x8, addend: 0x0, symName: __ZZNSt8__format15__do_vformat_toINS_10_Sink_iterIcEEcSt20basic_format_contextIS2_cEEET_S5_St17basic_string_viewIT0_St11char_traitsIS7_EERKSt17basic_format_argsIT1_EPKSt6localeENKUlRS5_E_clIPKcEEDaSJ_, symObjAddr: 0x705C, symBinAddr: 0x100007B5C, symSize: 0xBC }
  - { offset: 0x28529, size: 0x8, addend: 0x0, symName: __ZZNSt8__format15__do_vformat_toINS_10_Sink_iterIcEEcSt20basic_format_contextIS2_cEEET_S5_St17basic_string_viewIT0_St11char_traitsIS7_EERKSt17basic_format_argsIT1_EPKSt6localeENKUlRS5_E_clIeEEDaSJ_, symObjAddr: 0x7044, symBinAddr: 0x100007B44, symSize: 0x18 }
  - { offset: 0x2859A, size: 0x8, addend: 0x0, symName: __ZZNSt8__format15__do_vformat_toINS_10_Sink_iterIcEEcSt20basic_format_contextIS2_cEEET_S5_St17basic_string_viewIT0_St11char_traitsIS7_EERKSt17basic_format_argsIT1_EPKSt6localeENKUlRS5_E_clIdEEDaSJ_, symObjAddr: 0x702C, symBinAddr: 0x100007B2C, symSize: 0x18 }
  - { offset: 0x2860B, size: 0x8, addend: 0x0, symName: __ZZNSt8__format15__do_vformat_toINS_10_Sink_iterIcEEcSt20basic_format_contextIS2_cEEET_S5_St17basic_string_viewIT0_St11char_traitsIS7_EERKSt17basic_format_argsIT1_EPKSt6localeENKUlRS5_E_clIfEEDaSJ_, symObjAddr: 0x7014, symBinAddr: 0x100007B14, symSize: 0x18 }
  - { offset: 0x2867C, size: 0x8, addend: 0x0, symName: __ZZNSt8__format15__do_vformat_toINS_10_Sink_iterIcEEcSt20basic_format_contextIS2_cEEET_S5_St17basic_string_viewIT0_St11char_traitsIS7_EERKSt17basic_format_argsIT1_EPKSt6localeENKUlRS5_E_clIyEEDaSJ_, symObjAddr: 0x6F6C, symBinAddr: 0x100007A6C, symSize: 0xA8 }
  - { offset: 0x2878C, size: 0x8, addend: 0x0, symName: __ZZNSt8__format15__do_vformat_toINS_10_Sink_iterIcEEcSt20basic_format_contextIS2_cEEET_S5_St17basic_string_viewIT0_St11char_traitsIS7_EERKSt17basic_format_argsIT1_EPKSt6localeENKUlRS5_E_clIxEEDaSJ_, symObjAddr: 0x6E6C, symBinAddr: 0x10000796C, symSize: 0x100 }
  - { offset: 0x2889C, size: 0x8, addend: 0x0, symName: __ZZNSt8__format15__do_vformat_toINS_10_Sink_iterIcEEcSt20basic_format_contextIS2_cEEET_S5_St17basic_string_viewIT0_St11char_traitsIS7_EERKSt17basic_format_argsIT1_EPKSt6localeENKUlRS5_E_clIjEEDaSJ_, symObjAddr: 0x6DC4, symBinAddr: 0x1000078C4, symSize: 0xA8 }
  - { offset: 0x289AC, size: 0x8, addend: 0x0, symName: __ZZNSt8__format15__do_vformat_toINS_10_Sink_iterIcEEcSt20basic_format_contextIS2_cEEET_S5_St17basic_string_viewIT0_St11char_traitsIS7_EERKSt17basic_format_argsIT1_EPKSt6localeENKUlRS5_E_clIiEEDaSJ_, symObjAddr: 0x6CC4, symBinAddr: 0x1000077C4, symSize: 0x100 }
  - { offset: 0x28ABC, size: 0x8, addend: 0x0, symName: __ZZNSt8__format15__do_vformat_toINS_10_Sink_iterIcEEcSt20basic_format_contextIS2_cEEET_S5_St17basic_string_viewIT0_St11char_traitsIS7_EERKSt17basic_format_argsIT1_EPKSt6localeENKUlRS5_E_clIcEEDaSJ_, symObjAddr: 0x6C44, symBinAddr: 0x100007744, symSize: 0x80 }
  - { offset: 0x28B62, size: 0x8, addend: 0x0, symName: __ZZNSt8__format15__do_vformat_toINS_10_Sink_iterIcEEcSt20basic_format_contextIS2_cEEET_S5_St17basic_string_viewIT0_St11char_traitsIS7_EERKSt17basic_format_argsIT1_EPKSt6localeENKUlRS5_E_clIbEEDaSJ_, symObjAddr: 0x6B38, symBinAddr: 0x100007638, symSize: 0xD0 }
  - { offset: 0x28C3D, size: 0x8, addend: 0x0, symName: __ZZNSt8__format15__do_vformat_toINS_10_Sink_iterIcEEcSt20basic_format_contextIS2_cEEET_S5_St17basic_string_viewIT0_St11char_traitsIS7_EERKSt17basic_format_argsIT1_EPKSt6localeENKUlRS5_E_clISt9monostateEEDaSJ_, symObjAddr: 0x6B20, symBinAddr: 0x100007620, symSize: 0x18 }
  - { offset: 0x28E07, size: 0x8, addend: 0x0, symName: __ZNSt20basic_format_contextINSt8__format10_Sink_iterIcEEcED1Ev, symObjAddr: 0x7518, symBinAddr: 0x100008018, symSize: 0x24 }
  - { offset: 0x28E29, size: 0x8, addend: 0x0, symName: __ZNSt8__format18__visit_format_argIZNS_15__do_vformat_toINS_10_Sink_iterIcEEcSt20basic_format_contextIS3_cEEET_S6_St17basic_string_viewIT0_St11char_traitsIS8_EERKSt17basic_format_argsIT1_EPKSt6localeEUlRS6_E_S5_EEDcOS6_St16basic_format_argIS8_E, symObjAddr: 0x74D4, symBinAddr: 0x100007FD4, symSize: 0x44 }
  - { offset: 0x28E9E, size: 0x8, addend: 0x0, symName: __ZNSt16basic_format_argISt20basic_format_contextINSt8__format10_Sink_iterIcEEcEE8_M_visitIZNS1_15__do_vformat_toIS3_cS4_EET_S8_St17basic_string_viewIT0_St11char_traitsISA_EERKSt17basic_format_argsIT1_EPKSt6localeEUlRS8_E_EEDcOS8_NS1_6_Arg_tE, symObjAddr: 0x7230, symBinAddr: 0x100007D30, symSize: 0x2A4 }
  - { offset: 0x29177, size: 0x8, addend: 0x0, symName: __ZNKSt8__format10_Sink_iterIcE10_M_reserveEm, symObjAddr: 0x6C08, symBinAddr: 0x100007708, symSize: 0x3C }
  - { offset: 0x2921A, size: 0x8, addend: 0x0, symName: __ZSt9__find_ifIPKDiN9__gnu_cxx5__ops16_Iter_equals_valIS0_EEET_S6_S6_T0_, symObjAddr: 0x6AA8, symBinAddr: 0x1000075A8, symSize: 0x78 }
  - { offset: 0x29278, size: 0x8, addend: 0x0, symName: __ZN9__gnu_cxx5__ops17__iter_equals_valIKDiEENS0_16_Iter_equals_valIT_EERS4_, symObjAddr: 0x6A84, symBinAddr: 0x100007584, symSize: 0x24 }
  - { offset: 0x292AB, size: 0x8, addend: 0x0, symName: __ZSt13__lower_boundIPKjjN9__gnu_cxx5__ops14_Iter_less_valEET_S5_S5_RKT0_T1_, symObjAddr: 0x6978, symBinAddr: 0x100007478, symSize: 0x10C }
  - { offset: 0x29455, size: 0x8, addend: 0x0, symName: __ZSt13__upper_boundIPKDiDiN9__gnu_cxx5__ops14_Val_less_iterEET_S5_S5_RKT0_T1_, symObjAddr: 0x6868, symBinAddr: 0x100007368, symSize: 0x110 }
  - { offset: 0x295FF, size: 0x8, addend: 0x0, symName: __ZNSt8__detail10__to_charsImEESt15to_chars_resultPcS2_T_i, symObjAddr: 0x6724, symBinAddr: 0x100007224, symSize: 0x144 }
  - { offset: 0x296D9, size: 0x8, addend: 0x0, symName: __ZNSt8__detail12__to_chars_2ImEESt15to_chars_resultPcS2_T_, symObjAddr: 0x6630, symBinAddr: 0x100007130, symSize: 0xF4 }
  - { offset: 0x29761, size: 0x8, addend: 0x0, symName: __ZNSt8__detail12__to_chars_8ImEESt15to_chars_resultPcS2_T_, symObjAddr: 0x6468, symBinAddr: 0x100006F68, symSize: 0x1C8 }
  - { offset: 0x2982D, size: 0x8, addend: 0x0, symName: __ZNSt8__detail13__to_chars_10ImEESt15to_chars_resultPcS2_T_, symObjAddr: 0x63D0, symBinAddr: 0x100006ED0, symSize: 0x98 }
  - { offset: 0x2989F, size: 0x8, addend: 0x0, symName: __ZNSt8__detail13__to_chars_16ImEESt15to_chars_resultPcS2_T_, symObjAddr: 0x6234, symBinAddr: 0x100006D34, symSize: 0x19C }
  - { offset: 0x2997A, size: 0x8, addend: 0x0, symName: __ZNSt8__detail16__to_chars_len_2ImEEjT_, symObjAddr: 0x6218, symBinAddr: 0x100006D18, symSize: 0x1C }
  - { offset: 0x299AC, size: 0x8, addend: 0x0, symName: __ZNSt8__detail10__to_charsIjEESt15to_chars_resultPcS2_T_i, symObjAddr: 0x60D8, symBinAddr: 0x100006BD8, symSize: 0x140 }
  - { offset: 0x29A86, size: 0x8, addend: 0x0, symName: __ZNSt8__detail12__to_chars_2IjEESt15to_chars_resultPcS2_T_, symObjAddr: 0x5FE4, symBinAddr: 0x100006AE4, symSize: 0xF4 }
  - { offset: 0x29B0E, size: 0x8, addend: 0x0, symName: __ZNSt8__detail12__to_chars_8IjEESt15to_chars_resultPcS2_T_, symObjAddr: 0x5E1C, symBinAddr: 0x10000691C, symSize: 0x1C8 }
  - { offset: 0x29BD9, size: 0x8, addend: 0x0, symName: __ZNSt8__detail13__to_chars_10IjEESt15to_chars_resultPcS2_T_, symObjAddr: 0x5D84, symBinAddr: 0x100006884, symSize: 0x98 }
  - { offset: 0x29C4B, size: 0x8, addend: 0x0, symName: __ZNSt8__detail13__to_chars_16IjEESt15to_chars_resultPcS2_T_, symObjAddr: 0x5BE8, symBinAddr: 0x1000066E8, symSize: 0x19C }
  - { offset: 0x29D24, size: 0x8, addend: 0x0, symName: __ZNSt8__detail16__to_chars_len_2IjEEjT_, symObjAddr: 0x5BCC, symBinAddr: 0x1000066CC, symSize: 0x1C }
  - { offset: 0x29DA2, size: 0x8, addend: 0x0, symName: __ZNSt7__cxx1112basic_stringIcSt11char_traitsIcESaIcEE12_M_constructIPKcEEvT_S8_St20forward_iterator_tag, symObjAddr: 0x5A8C, symBinAddr: 0x10000658C, symSize: 0x140 }
  - { offset: 0x29EA1, size: 0x8, addend: 0x0, symName: __ZZNSt7__cxx1112basic_stringIcSt11char_traitsIcESaIcEE12_M_constructIPKcEEvT_S8_St20forward_iterator_tagEN6_GuardC1EPS4_, symObjAddr: 0x5A34, symBinAddr: 0x100006534, symSize: 0x24 }
  - { offset: 0x29ED4, size: 0x8, addend: 0x0, symName: __ZZNSt7__cxx1112basic_stringIcSt11char_traitsIcESaIcEE12_M_constructIPKcEEvT_S8_St20forward_iterator_tagEN6_GuardD1Ev, symObjAddr: 0x5A58, symBinAddr: 0x100006558, symSize: 0x34 }
  - { offset: 0x2A005, size: 0x8, addend: 0x0, symName: __ZNSt7__cxx1112basic_stringIcSt11char_traitsIcESaIcEE12_Alloc_hiderC1EPcRKS3_, symObjAddr: 0x59E4, symBinAddr: 0x1000064E4, symSize: 0x50 }
  - { offset: 0x2A095, size: 0x8, addend: 0x0, symName: __ZNKSt7__cxx1112basic_stringIcSt11char_traitsIcESaIcEE4dataEv, symObjAddr: 0x59C8, symBinAddr: 0x1000064C8, symSize: 0x1C }
  - { offset: 0x2A0D5, size: 0x8, addend: 0x0, symName: __ZNSt7__cxx1112basic_stringIcSt11char_traitsIcESaIcEE11_M_capacityEm, symObjAddr: 0x59A4, symBinAddr: 0x1000064A4, symSize: 0x24 }
  - { offset: 0x2A110, size: 0x8, addend: 0x0, symName: __ZNSt7__cxx1112basic_stringIcSt11char_traitsIcESaIcEE7_M_dataEPc, symObjAddr: 0x5980, symBinAddr: 0x100006480, symSize: 0x24 }
  - { offset: 0x2A14A, size: 0x8, addend: 0x0, symName: __ZNKSt7__cxx1112basic_stringIcSt11char_traitsIcESaIcEE6lengthEv, symObjAddr: 0x5964, symBinAddr: 0x100006464, symSize: 0x1C }
  - { offset: 0x2A174, size: 0x8, addend: 0x0, symName: __ZNSt7__cxx1112basic_stringIcSt11char_traitsIcESaIcEE16_M_get_allocatorEv, symObjAddr: 0x5950, symBinAddr: 0x100006450, symSize: 0x14 }
  - { offset: 0x2A1C6, size: 0x8, addend: 0x0, symName: __ZNSt7__cxx1112basic_stringIcSt11char_traitsIcESaIcEE7reserveEm, symObjAddr: 0x58A8, symBinAddr: 0x1000063A8, symSize: 0xA8 }
  - { offset: 0x2A223, size: 0x8, addend: 0x0, symName: __ZNKSt7__cxx1112basic_stringIcSt11char_traitsIcESaIcEE11_M_is_localEv, symObjAddr: 0x5840, symBinAddr: 0x100006340, symSize: 0x68 }
  - { offset: 0x2A24D, size: 0x8, addend: 0x0, symName: __ZNKSt7__cxx1112basic_stringIcSt11char_traitsIcESaIcEE8capacityEv, symObjAddr: 0x57BC, symBinAddr: 0x1000062BC, symSize: 0x84 }
  - { offset: 0x2A288, size: 0x8, addend: 0x0, symName: __ZNSt7__cxx1112basic_stringIcSt11char_traitsIcESaIcEE10_M_disposeEv, symObjAddr: 0x5774, symBinAddr: 0x100006274, symSize: 0x48 }
  - { offset: 0x2A2B2, size: 0x8, addend: 0x0, symName: __ZNSt7__cxx1112basic_stringIcSt11char_traitsIcESaIcEE9_M_lengthEm, symObjAddr: 0x5750, symBinAddr: 0x100006250, symSize: 0x24 }
  - { offset: 0x2A2EC, size: 0x8, addend: 0x0, symName: __ZNKSt7__cxx1112basic_stringIcSt11char_traitsIcESaIcEE7_M_dataEv, symObjAddr: 0x5738, symBinAddr: 0x100006238, symSize: 0x18 }
  - { offset: 0x2A312, size: 0x8, addend: 0x0, symName: __ZSt12construct_atIcJRcEQaant20is_unbounded_array_vIT_ErqXgsnwcvPvLi0E_S1_pispcl7declvalIT0_EEEEEPS1_S4_DpOS3_, symObjAddr: 0x56C8, symBinAddr: 0x1000061C8, symSize: 0x70 }
  - { offset: 0x2A3B9, size: 0x8, addend: 0x0, symName: __ZNSt8__detail15__raise_and_addItEEbRT_ih, symObjAddr: 0x55EC, symBinAddr: 0x1000060EC, symSize: 0xDC }
  - { offset: 0x2A45A, size: 0x8, addend: 0x0, symName: __ZNSt4pairItPKcEC1IiDnEEOT_OT0_, symObjAddr: 0x55A4, symBinAddr: 0x1000060A4, symSize: 0x48 }
  - { offset: 0x2A4C8, size: 0x8, addend: 0x0, symName: __ZNSt9__unicode13_Utf_iteratorIcDiPKcS2_NS_5_ReplEE8_S_errorEv, symObjAddr: 0x5534, symBinAddr: 0x100006034, symSize: 0x70 }
  - { offset: 0x2A51C, size: 0x8, addend: 0x0, symName: __ZSteqIcSt11char_traitsIcEEbSt17basic_string_viewIT_T0_ENSt13type_identityIS5_E4typeE, symObjAddr: 0x54D8, symBinAddr: 0x100005FD8, symSize: 0x5C }
  - { offset: 0x2A56D, size: 0x8, addend: 0x0, symName: __ZNSt8__format5_SpecIcE18_M_parse_precisionEPKcS3_RSt26basic_format_parse_contextIcE, symObjAddr: 0x5404, symBinAddr: 0x100005F04, symSize: 0xD4 }
  - { offset: 0x2A5EC, size: 0x8, addend: 0x0, symName: __ZNSt26basic_format_parse_contextIcE12check_arg_idEm, symObjAddr: 0x53A0, symBinAddr: 0x100005EA0, symSize: 0x64 }
  - { offset: 0x2A623, size: 0x8, addend: 0x0, symName: __ZNSt8__format14__parse_arg_idIcEESt4pairItPKT_ES4_S4_, symObjAddr: 0x5284, symBinAddr: 0x100005D84, symSize: 0x11C }
  - { offset: 0x2A6A0, size: 0x8, addend: 0x0, symName: __ZSt6formatIJRNSt7__cxx1112basic_stringIcSt11char_traitsIcESaIcEEEEES5_St19basic_format_stringIcJDpNSt13type_identityIT_E4typeEEEDpOS9_, symObjAddr: 0x5200, symBinAddr: 0x100005D00, symSize: 0x84 }
  - { offset: 0x2A793, size: 0x8, addend: 0x0, symName: __ZSt6formatIJRA1_KcEENSt7__cxx1112basic_stringIcSt11char_traitsIcESaIcEEESt19basic_format_stringIcJDpNSt13type_identityIT_E4typeEEEDpOSB_, symObjAddr: 0x517C, symBinAddr: 0x100005C7C, symSize: 0x84 }
  - { offset: 0x2A886, size: 0x8, addend: 0x0, symName: __ZSt6formatIJEENSt7__cxx1112basic_stringIcSt11char_traitsIcESaIcEEESt19basic_format_stringIcJDpNSt13type_identityIT_E4typeEEEDpOS8_, symObjAddr: 0x5120, symBinAddr: 0x100005C20, symSize: 0x5C }
  - { offset: 0x2A965, size: 0x8, addend: 0x0, symName: __ZNSt7__cxx1112basic_stringIcSt11char_traitsIcESaIcEEC1IS3_EEPKcRKS3_, symObjAddr: 0x5084, symBinAddr: 0x100005B84, symSize: 0x9C }
  - { offset: 0x2A9CA, size: 0x8, addend: 0x0, symName: __ZNOSt8__format9_Seq_sinkINSt7__cxx1112basic_stringIcSt11char_traitsIcESaIcEEEE3getEv, symObjAddr: 0x4FB0, symBinAddr: 0x100005AB0, symSize: 0xD4 }
  - { offset: 0x2AB3C, size: 0x8, addend: 0x0, symName: __ZSt12construct_atISt6localeJEQaant20is_unbounded_array_vIT_ErqXgsnwcvPvLi0E_S1_pispcl7declvalIT0_EEEEEPS1_S4_DpOS3_, symObjAddr: 0x4F50, symBinAddr: 0x100005A50, symSize: 0x60 }
  - { offset: 0x2ABF8, size: 0x8, addend: 0x0, symName: __ZSt4findIPKDiDiET_S2_S2_RKT0_, symObjAddr: 0x4F1C, symBinAddr: 0x100005A1C, symSize: 0x34 }
  - { offset: 0x2ACC2, size: 0x8, addend: 0x0, symName: __ZSt11lower_boundIPKjjET_S2_S2_RKT0_, symObjAddr: 0x4EE0, symBinAddr: 0x1000059E0, symSize: 0x3C }
  - { offset: 0x2AD5E, size: 0x8, addend: 0x0, symName: __ZSt11upper_boundIPKDiDiET_S2_S2_RKT0_, symObjAddr: 0x4EA4, symBinAddr: 0x1000059A4, symSize: 0x3C }
  - { offset: 0x2ADEE, size: 0x8, addend: 0x0, symName: __ZNKSt7__cxx1112basic_stringIcSt11char_traitsIcESaIcEE8max_sizeEv, symObjAddr: 0x4E6C, symBinAddr: 0x10000596C, symSize: 0x38 }
  - { offset: 0x2AE36, size: 0x8, addend: 0x0, symName: __ZSt12__to_chars_iIyESt15to_chars_resultPcS1_T_i, symObjAddr: 0x4C9C, symBinAddr: 0x10000579C, symSize: 0x1D0 }
  - { offset: 0x2AED7, size: 0x8, addend: 0x0, symName: __ZSt12__to_chars_iImESt15to_chars_resultPcS1_T_i, symObjAddr: 0x4ACC, symBinAddr: 0x1000055CC, symSize: 0x1D0 }
  - { offset: 0x2AF65, size: 0x8, addend: 0x0, symName: __ZSt12__to_chars_iIjESt15to_chars_resultPcS1_T_i, symObjAddr: 0x48FC, symBinAddr: 0x1000053FC, symSize: 0x1D0 }
  - { offset: 0x2B006, size: 0x8, addend: 0x0, symName: __ZSt12__to_chars_iIhESt15to_chars_resultPcS1_T_i, symObjAddr: 0x4728, symBinAddr: 0x100005228, symSize: 0x1D4 }
  - { offset: 0x2B0AB, size: 0x8, addend: 0x0, symName: __ZNKSt7__cxx1112basic_stringIcSt11char_traitsIcESaIcEEcvSt17basic_string_viewIcS2_EEv, symObjAddr: 0x46E0, symBinAddr: 0x1000051E0, symSize: 0x48 }
  - { offset: 0x2B0D1, size: 0x8, addend: 0x0, symName: __ZNSt8__detail18__to_chars_10_implIyEEvPcjT_, symObjAddr: 0x4514, symBinAddr: 0x100005014, symSize: 0x1CC }
  - { offset: 0x2B18D, size: 0x8, addend: 0x0, symName: __ZNSt8__detail18__to_chars_10_implImEEvPcjT_, symObjAddr: 0x4348, symBinAddr: 0x100004E48, symSize: 0x1CC }
  - { offset: 0x2B275, size: 0x8, addend: 0x0, symName: __ZNSt7__cxx1112basic_stringIcSt11char_traitsIcESaIcEEC1EOS4_, symObjAddr: 0x41B0, symBinAddr: 0x100004CB0, symSize: 0x198 }
  - { offset: 0x2B374, size: 0x8, addend: 0x0, symName: __ZNSt7__cxx1112basic_stringIcSt11char_traitsIcESaIcEE22__resize_and_overwriteIZNS_9to_stringEiEUlPcmE_EEvmT_, symObjAddr: 0x40A4, symBinAddr: 0x100004BA4, symSize: 0x10C }
  - { offset: 0x2B463, size: 0x8, addend: 0x0, symName: __ZZNSt7__cxx1112basic_stringIcSt11char_traitsIcESaIcEE22__resize_and_overwriteIZNS_9to_stringEiEUlPcmE_EEvmT_EN11_TerminatorD1Ev, symObjAddr: 0x4070, symBinAddr: 0x100004B70, symSize: 0x34 }
  - { offset: 0x2B4E4, size: 0x8, addend: 0x0, symName: __ZNSt8__detail18__to_chars_10_implIjEEvPcjT_, symObjAddr: 0x3EBC, symBinAddr: 0x1000049BC, symSize: 0x1B4 }
  - { offset: 0x2B5BE, size: 0x8, addend: 0x0, symName: __ZNSt7__cxx1112basic_stringIcSt11char_traitsIcESaIcEED1Ev, symObjAddr: 0x3E94, symBinAddr: 0x100004994, symSize: 0x28 }
  - { offset: 0x2B5E4, size: 0x8, addend: 0x0, symName: __ZNSt7__cxx1112basic_stringIcSt11char_traitsIcESaIcEE13_M_set_lengthEm, symObjAddr: 0x3E4C, symBinAddr: 0x10000494C, symSize: 0x48 }
  - { offset: 0x2B653, size: 0x8, addend: 0x0, symName: __ZNSt17basic_string_viewIcSt11char_traitsIcEEC1EPKcm, symObjAddr: 0x3E18, symBinAddr: 0x100004918, symSize: 0x34 }
  - { offset: 0x2B68B, size: 0x8, addend: 0x0, symName: __ZNKSt17basic_string_viewIcSt11char_traitsIcEE4dataEv, symObjAddr: 0x3E00, symBinAddr: 0x100004900, symSize: 0x18 }
  - { offset: 0x2B6B1, size: 0x8, addend: 0x0, symName: __ZN9__gnu_cxx11char_traitsIcE6assignEPcmc, symObjAddr: 0x3D64, symBinAddr: 0x100004864, symSize: 0x9C }
  - { offset: 0x2B75F, size: 0x8, addend: 0x0, symName: __ZN9__gnu_cxx11char_traitsIcE4copyEPcPKcm, symObjAddr: 0x3CB0, symBinAddr: 0x1000047B0, symSize: 0xB4 }
  - { offset: 0x2B7E9, size: 0x8, addend: 0x0, symName: __ZN9__gnu_cxx11char_traitsIcE4moveEPcPKcm, symObjAddr: 0x3C44, symBinAddr: 0x100004744, symSize: 0x6C }
  - { offset: 0x2B84B, size: 0x8, addend: 0x0, symName: __ZSt12construct_atIcJRKcEQaant20is_unbounded_array_vIT_ErqXgsnwcvPvLi0E_S2_pispcl7declvalIT0_EEEEEPS2_S5_DpOS4_, symObjAddr: 0x3BD4, symBinAddr: 0x1000046D4, symSize: 0x70 }
  - { offset: 0x2B8D5, size: 0x8, addend: 0x0, symName: __ZN4Card10printFancyEv, symObjAddr: 0x3960, symBinAddr: 0x100004460, symSize: 0x274 }
  - { offset: 0x2B9B2, size: 0x8, addend: 0x0, symName: __ZNSt4pairItPKcEC1IRtRS1_EEOT_OT0_, symObjAddr: 0x3914, symBinAddr: 0x100004414, symSize: 0x4C }
  - { offset: 0x2BA40, size: 0x8, addend: 0x0, symName: __ZSt13__countl_zeroIjEiT_, symObjAddr: 0x38F4, symBinAddr: 0x1000043F4, symSize: 0x20 }
  - { offset: 0x2BA82, size: 0x8, addend: 0x0, symName: __ZNSt8__detail18__from_chars_alnumILb1EtEEbRPKcS2_RT0_i, symObjAddr: 0x3774, symBinAddr: 0x100004274, symSize: 0x180 }
  - { offset: 0x2BB38, size: 0x8, addend: 0x0, symName: __ZNSt8__detail25__from_chars_alnum_to_valILb1EEEhh, symObjAddr: 0x3758, symBinAddr: 0x100004258, symSize: 0x1C }
  - { offset: 0x2BB6C, size: 0x8, addend: 0x0, symName: __ZNSt8__format15__parse_integerIcEESt4pairItPKT_ES4_S4_, symObjAddr: 0x36A0, symBinAddr: 0x1000041A0, symSize: 0xB8 }
  - { offset: 0x2BBE7, size: 0x8, addend: 0x0, symName: __ZNSt8__format5_SpecIcE27_S_parse_width_or_precisionEPKcS3_RtRbRSt26basic_format_parse_contextIcE, symObjAddr: 0x34F4, symBinAddr: 0x100003FF4, symSize: 0x1AC }
  - { offset: 0x2BCE6, size: 0x8, addend: 0x0, symName: __ZNSt8__format5_SpecIcE14_M_parse_widthEPKcS3_RSt26basic_format_parse_contextIcE, symObjAddr: 0x344C, symBinAddr: 0x100003F4C, symSize: 0xA8 }
  - { offset: 0x2BD61, size: 0x8, addend: 0x0, symName: __ZNSt8__format5_SpecIcE8_S_alignEc, symObjAddr: 0x33F8, symBinAddr: 0x100003EF8, symSize: 0x54 }
  - { offset: 0x2BD8F, size: 0x8, addend: 0x0, symName: __ZNKSt9__unicode13_Utf_iteratorIcDiPKcS2_NS_5_ReplEE7_M_currEv, symObjAddr: 0x33E0, symBinAddr: 0x100003EE0, symSize: 0x18 }
  - { offset: 0x2BDB9, size: 0x8, addend: 0x0, symName: __ZNKSt9__unicode13_Utf_iteratorIcDiPKcS2_NS_5_ReplEE4baseEvQ16forward_iteratorIT1_E, symObjAddr: 0x33C4, symBinAddr: 0x100003EC4, symSize: 0x1C }
  - { offset: 0x2BDE3, size: 0x8, addend: 0x0, symName: __ZNKSt5arrayIDiLm1EEixEm, symObjAddr: 0x3354, symBinAddr: 0x100003E54, symSize: 0x70 }
  - { offset: 0x2BE5D, size: 0x8, addend: 0x0, symName: __ZNKSt9__unicode13_Utf_iteratorIcDiPKcS2_NS_5_ReplEEdeEv, symObjAddr: 0x3320, symBinAddr: 0x100003E20, symSize: 0x34 }
  - { offset: 0x2BE83, size: 0x8, addend: 0x0, symName: __ZSt9__advanceIPKclEvRT_T0_St26random_access_iterator_tag, symObjAddr: 0x32EC, symBinAddr: 0x100003DEC, symSize: 0x34 }
  - { offset: 0x2BF32, size: 0x8, addend: 0x0, symName: __ZNSt9__unicode13_Utf_iteratorIcDiPKcS2_NS_5_ReplEEppEv, symObjAddr: 0x31C0, symBinAddr: 0x100003CC0, symSize: 0x12C }
  - { offset: 0x2BFB4, size: 0x8, addend: 0x0, symName: __ZNSt9__unicode13_Utf_iteratorIcDiPKcS2_NS_5_ReplEEppEi, symObjAddr: 0x3178, symBinAddr: 0x100003C78, symSize: 0x48 }
  - { offset: 0x2C011, size: 0x8, addend: 0x0, symName: __ZNSt9__unicode13_Utf_iteratorIcDiPKcS2_NS_5_ReplEE6_GuardIS2_ED1Ev, symObjAddr: 0x3134, symBinAddr: 0x100003C34, symSize: 0x44 }
  - { offset: 0x2C071, size: 0x8, addend: 0x0, symName: __ZNSt5arrayIDiLm1EEixEm, symObjAddr: 0x30C4, symBinAddr: 0x100003BC4, symSize: 0x70 }
  - { offset: 0x2C0EB, size: 0x8, addend: 0x0, symName: __ZNSt9__unicode13_Utf_iteratorIcDiPKcS2_NS_5_ReplEE9_M_updateEDih, symObjAddr: 0x3064, symBinAddr: 0x100003B64, symSize: 0x60 }
  - { offset: 0x2C137, size: 0x8, addend: 0x0, symName: __ZNSt9__unicode13_Utf_iteratorIcDiPKcS2_NS_5_ReplEE12_M_read_utf8Ev, symObjAddr: 0x2BAC, symBinAddr: 0x1000036AC, symSize: 0x4B8 }
  - { offset: 0x2C260, size: 0x8, addend: 0x0, symName: __ZZNSt9__unicode13_Utf_iteratorIcDiPKcS2_NS_5_ReplEE12_M_read_utf8EvENKUlvE_clEv, symObjAddr: 0x2B64, symBinAddr: 0x100003664, symSize: 0x48 }
  - { offset: 0x2C337, size: 0x8, addend: 0x0, symName: __ZNSt9__unicode13_Utf_iteratorIcDiPKcS2_NS_5_ReplEE7_M_readEv, symObjAddr: 0x2B44, symBinAddr: 0x100003644, symSize: 0x20 }
  - { offset: 0x2C361, size: 0x8, addend: 0x0, symName: __ZNSt9__unicode13_Utf_iteratorIcDiPKcS2_NS_5_ReplEE7_M_currEv, symObjAddr: 0x2B2C, symBinAddr: 0x10000362C, symSize: 0x18 }
  - { offset: 0x2C3C1, size: 0x8, addend: 0x0, symName: __ZNSt9__unicode13_Utf_iteratorIcDiPKcS2_NS_5_ReplEE15_First_and_currIS2_EC1ES2_S2_, symObjAddr: 0x2AF8, symBinAddr: 0x1000035F8, symSize: 0x34 }
  - { offset: 0x2C43A, size: 0x8, addend: 0x0, symName: __ZNSt9__unicode13_Utf_iteratorIcDiPKcS2_NS_5_ReplEEC1ES2_S2_S2_Q22bidirectional_iteratorIT1_E, symObjAddr: 0x2A5C, symBinAddr: 0x10000355C, symSize: 0x9C }
  - { offset: 0x2C47B, size: 0x8, addend: 0x0, symName: __ZNKSt6ranges8subrangeIPKcS2_LNS_13subrange_kindE1EE3endEv, symObjAddr: 0x2A44, symBinAddr: 0x100003544, symSize: 0x18 }
  - { offset: 0x2C4A5, size: 0x8, addend: 0x0, symName: __ZNKSt6ranges8subrangeIPKcS2_LNS_13subrange_kindE1EE5beginEvQ8copyableIT_E, symObjAddr: 0x2A2C, symBinAddr: 0x10000352C, symSize: 0x18 }
  - { offset: 0x2C51B, size: 0x8, addend: 0x0, symName: __ZNSt9__unicode9_Utf_viewIDiNSt6ranges8subrangeIPKcS4_LNS1_13subrange_kindE1EEEEC1EOS6_, symObjAddr: 0x29FC, symBinAddr: 0x1000034FC, symSize: 0x30 }
  - { offset: 0x2C5EC, size: 0x8, addend: 0x0, symName: __ZNSt6ranges8subrangeIPKcS2_LNS_13subrange_kindE1EEC1IS2_EET_S2_QntL_ZNS0_IS6_T0_XT1_EE13_S_store_sizeEE, symObjAddr: 0x29B4, symBinAddr: 0x1000034B4, symSize: 0x48 }
  - { offset: 0x2C67B, size: 0x8, addend: 0x0, symName: __ZNSt8__format5_SpecIcE23_M_parse_fill_and_alignEPKcS3_St17basic_string_viewIcSt11char_traitsIcEE, symObjAddr: 0x27E8, symBinAddr: 0x1000032E8, symSize: 0x1CC }
  - { offset: 0x2C7FB, size: 0x8, addend: 0x0, symName: __ZNSt9__unicode9_Utf_viewIDiNSt6ranges8subrangeIPKcS4_LNS1_13subrange_kindE1EEEE5beginEv, symObjAddr: 0x2784, symBinAddr: 0x100003284, symSize: 0x64 }
  - { offset: 0x2C825, size: 0x8, addend: 0x0, symName: __ZNSt9__unicode9_Utf_viewIDiNSt6ranges8subrangeIPKcS4_LNS1_13subrange_kindE1EEEE8_M_beginIS4_S4_EEDaT_T0_, symObjAddr: 0x2750, symBinAddr: 0x100003250, symSize: 0x34 }
  - { offset: 0x2C883, size: 0x8, addend: 0x0, symName: __ZNKSt6ranges8subrangeIPKcS2_LNS_13subrange_kindE1EE5emptyEv, symObjAddr: 0x2724, symBinAddr: 0x100003224, symSize: 0x2C }
  - { offset: 0x2C8B9, size: 0x8, addend: 0x0, symName: __ZNKSt6ranges8__access6_EmptyclIRKNS_8subrangeIPKcS5_LNS_13subrange_kindE1EEEEEbOT_, symObjAddr: 0x2704, symBinAddr: 0x100003204, symSize: 0x20 }
  - { offset: 0x2C8FD, size: 0x8, addend: 0x0, symName: __ZNKSt9__unicode9_Utf_viewIDiNSt6ranges8subrangeIPKcS4_LNS1_13subrange_kindE1EEEE5emptyEv, symObjAddr: 0x26DC, symBinAddr: 0x1000031DC, symSize: 0x28 }
  - { offset: 0x2C927, size: 0x8, addend: 0x0, symName: __ZNKSt6ranges8__access4_EndclIRNS_8subrangeIPKcS5_LNS_13subrange_kindE1EEEEEDaOT_, symObjAddr: 0x26BC, symBinAddr: 0x1000031BC, symSize: 0x20 }
  - { offset: 0x2C96A, size: 0x8, addend: 0x0, symName: __ZNKSt6ranges8__access6_BeginclIRNS_8subrangeIPKcS5_LNS_13subrange_kindE1EEEEEDaOT_, symObjAddr: 0x269C, symBinAddr: 0x10000319C, symSize: 0x20 }
  - { offset: 0x2C9AD, size: 0x8, addend: 0x0, symName: __ZNSt8__format5_SpecIcE23_M_parse_fill_and_alignEPKcS3_, symObjAddr: 0x2658, symBinAddr: 0x100003158, symSize: 0x44 }
  - { offset: 0x2C9F9, size: 0x8, addend: 0x0, symName: __ZNSt8__format15__formatter_strIcE5parseERSt26basic_format_parse_contextIcE, symObjAddr: 0x2500, symBinAddr: 0x100003000, symSize: 0x158 }
  - { offset: 0x2CAFD, size: 0x8, addend: 0x0, symName: __ZZNSt8__format15__formatter_strIcE5parseERSt26basic_format_parse_contextIcEENKUlvE_clEv, symObjAddr: 0x2468, symBinAddr: 0x100002F68, symSize: 0x34 }
  - { offset: 0x2CC10, size: 0x8, addend: 0x0, symName: __ZZNSt8__format15__formatter_strIcE5parseERSt26basic_format_parse_contextIcEENKUlvE0_clEv, symObjAddr: 0x249C, symBinAddr: 0x100002F9C, symSize: 0x64 }
  - { offset: 0x2CC88, size: 0x8, addend: 0x0, symName: __ZNSt26basic_format_parse_contextIcE11next_arg_idEv, symObjAddr: 0x23F4, symBinAddr: 0x100002EF4, symSize: 0x74 }
  - { offset: 0x2CCB2, size: 0x8, addend: 0x0, symName: __ZNSt8__format8_ScannerIcE23_M_on_replacement_fieldEv, symObjAddr: 0x21D8, symBinAddr: 0x100002CD8, symSize: 0x21C }
  - { offset: 0x2CD5C, size: 0x8, addend: 0x0, symName: __ZNSt10__pair_getILm1EE10__move_getItPKcEEOT0_OSt4pairIT_S4_E, symObjAddr: 0x21B8, symBinAddr: 0x100002CB8, symSize: 0x20 }
  - { offset: 0x2CDBC, size: 0x8, addend: 0x0, symName: __ZSt3getILm1EtPKcEONSt13tuple_elementIXT_ESt4pairIT0_T1_EE4typeEOS6_, symObjAddr: 0x2194, symBinAddr: 0x100002C94, symSize: 0x24 }
  - { offset: 0x2CE50, size: 0x8, addend: 0x0, symName: __ZNSt10__pair_getILm0EE10__move_getItPKcEEOT_OSt4pairIS4_T0_E, symObjAddr: 0x2178, symBinAddr: 0x100002C78, symSize: 0x1C }
  - { offset: 0x2CED4, size: 0x8, addend: 0x0, symName: __ZSt3getILm0EtPKcEONSt13tuple_elementIXT_ESt4pairIT0_T1_EE4typeEOS6_, symObjAddr: 0x2154, symBinAddr: 0x100002C54, symSize: 0x24 }
  - { offset: 0x2CF42, size: 0x8, addend: 0x0, symName: __ZNSt26basic_format_parse_contextIcE10advance_toEPKc, symObjAddr: 0x2130, symBinAddr: 0x100002C30, symSize: 0x24 }
  - { offset: 0x2CF7D, size: 0x8, addend: 0x0, symName: __ZNSt8__format8_ScannerIcE11_M_on_charsEPKc, symObjAddr: 0x2118, symBinAddr: 0x100002C18, symSize: 0x18 }
  - { offset: 0x2CFAC, size: 0x8, addend: 0x0, symName: __ZN9__gnu_cxx11char_traitsIcE4findEPKcmRS2_, symObjAddr: 0x20A4, symBinAddr: 0x100002BA4, symSize: 0x74 }
  - { offset: 0x2D01F, size: 0x8, addend: 0x0, symName: __ZNKSt17basic_string_viewIcSt11char_traitsIcEE4findEcm, symObjAddr: 0x200C, symBinAddr: 0x100002B0C, symSize: 0x98 }
  - { offset: 0x2D110, size: 0x8, addend: 0x0, symName: __ZNSt17basic_string_viewIcSt11char_traitsIcEEC1IPKcS5_EET_T0_, symObjAddr: 0x1FC4, symBinAddr: 0x100002AC4, symSize: 0x48 }
  - { offset: 0x2D17D, size: 0x8, addend: 0x0, symName: __ZNKSt26basic_format_parse_contextIcE3endEv, symObjAddr: 0x1FAC, symBinAddr: 0x100002AAC, symSize: 0x18 }
  - { offset: 0x2D1A7, size: 0x8, addend: 0x0, symName: __ZNKSt8__format8_ScannerIcE3endEv, symObjAddr: 0x1F8C, symBinAddr: 0x100002A8C, symSize: 0x20 }
  - { offset: 0x2D1D1, size: 0x8, addend: 0x0, symName: __ZNKSt26basic_format_parse_contextIcE5beginEv, symObjAddr: 0x1F74, symBinAddr: 0x100002A74, symSize: 0x18 }
  - { offset: 0x2D1FB, size: 0x8, addend: 0x0, symName: __ZNKSt8__format8_ScannerIcE5beginEv, symObjAddr: 0x1F54, symBinAddr: 0x100002A54, symSize: 0x20 }
  - { offset: 0x2D225, size: 0x8, addend: 0x0, symName: __ZNKSt8__format8_ScannerIcE10_M_fmt_strEv, symObjAddr: 0x1F0C, symBinAddr: 0x100002A0C, symSize: 0x48 }
  - { offset: 0x2D24F, size: 0x8, addend: 0x0, symName: __ZNSt8__format8_ScannerIcE7_M_scanEv, symObjAddr: 0x1B08, symBinAddr: 0x100002608, symSize: 0x404 }
  - { offset: 0x2D32C, size: 0x8, addend: 0x0, symName: __ZNKSt17basic_string_viewIcSt11char_traitsIcEEixEm, symObjAddr: 0x1A9C, symBinAddr: 0x10000259C, symSize: 0x6C }
  - { offset: 0x2D384, size: 0x8, addend: 0x0, symName: __ZNKSt17basic_string_viewIcSt11char_traitsIcEE3endEv, symObjAddr: 0x1A78, symBinAddr: 0x100002578, symSize: 0x24 }
  - { offset: 0x2D3AE, size: 0x8, addend: 0x0, symName: __ZNKSt17basic_string_viewIcSt11char_traitsIcEE5beginEv, symObjAddr: 0x1A60, symBinAddr: 0x100002560, symSize: 0x18 }
  - { offset: 0x2D40E, size: 0x8, addend: 0x0, symName: __ZNSt26basic_format_parse_contextIcEC2ESt17basic_string_viewIcSt11char_traitsIcEEm, symObjAddr: 0x19FC, symBinAddr: 0x1000024FC, symSize: 0x64 }
  - { offset: 0x2D47C, size: 0x8, addend: 0x0, symName: __ZNSt8__format8_ScannerIcEC2ESt17basic_string_viewIcSt11char_traitsIcEEm, symObjAddr: 0x19B4, symBinAddr: 0x1000024B4, symSize: 0x48 }
  - { offset: 0x2D4E8, size: 0x8, addend: 0x0, symName: __ZNSt8__format8_ScannerIcE14_Parse_contextCI1St26basic_format_parse_contextIcEESt17basic_string_viewIcSt11char_traitsIcEEm, symObjAddr: 0x1978, symBinAddr: 0x100002478, symSize: 0x3C }
  - { offset: 0x2D51C, size: 0x8, addend: 0x0, symName: __ZN9__gnu_cxx11char_traitsIcE2eqERKcS3_, symObjAddr: 0x1948, symBinAddr: 0x100002448, symSize: 0x30 }
  - { offset: 0x2D555, size: 0x8, addend: 0x0, symName: __ZN9__gnu_cxx11char_traitsIcE6lengthEPKc, symObjAddr: 0x18F0, symBinAddr: 0x1000023F0, symSize: 0x58 }
  - { offset: 0x2D5B9, size: 0x8, addend: 0x0, symName: __ZNSt17basic_string_viewIcSt11char_traitsIcEEC1EPKc, symObjAddr: 0x18B4, symBinAddr: 0x1000023B4, symSize: 0x3C }
  - { offset: 0x2D5EB, size: 0x8, addend: 0x0, symName: __ZN4Card5printEv, symObjAddr: 0x17F0, symBinAddr: 0x1000022F0, symSize: 0xC4 }
  - { offset: 0x2D619, size: 0x8, addend: 0x0, symName: __ZN4Card13LabeltoStringB5cxx11Ev, symObjAddr: 0x164C, symBinAddr: 0x10000214C, symSize: 0x1A4 }
  - { offset: 0x2D8BB, size: 0x8, addend: 0x0, symName: __ZN4Card8getLabelEv, symObjAddr: 0x1634, symBinAddr: 0x100002134, symSize: 0x18 }
  - { offset: 0x2D8E8, size: 0x8, addend: 0x0, symName: __ZN4Card8getColorEv, symObjAddr: 0x161C, symBinAddr: 0x10000211C, symSize: 0x18 }
  - { offset: 0x2D915, size: 0x8, addend: 0x0, symName: __ZN4Card7isvalidEPS_, symObjAddr: 0x158C, symBinAddr: 0x10000208C, symSize: 0x90 }
  - { offset: 0x2D952, size: 0x8, addend: 0x0, symName: __ZN4Card13ColortoStringB5cxx11Ev, symObjAddr: 0x1414, symBinAddr: 0x100001F14, symSize: 0x178 }
  - { offset: 0x2DBCB, size: 0x8, addend: 0x0, symName: __ZSt7vformatB5cxx11St17basic_string_viewIcSt11char_traitsIcEESt17basic_format_argsISt20basic_format_contextINSt8__format10_Sink_iterIcEEcEE, symObjAddr: 0x12BC, symBinAddr: 0x100001DBC, symSize: 0x158 }
  - { offset: 0x2DDBC, size: 0x8, addend: 0x0, symName: __ZNSt8__format9_Seq_sinkINSt7__cxx1112basic_stringIcSt11char_traitsIcESaIcEEEED1Ev, symObjAddr: 0x1284, symBinAddr: 0x100001D84, symSize: 0x38 }
  - { offset: 0x2DDE2, size: 0x8, addend: 0x0, symName: __ZNSt8__format16_Optional_locale5valueEv, symObjAddr: 0x123C, symBinAddr: 0x100001D3C, symSize: 0x48 }
  - { offset: 0x2DE26, size: 0x8, addend: 0x0, symName: __ZNSt8__format16_Optional_localeD1Ev, symObjAddr: 0x1208, symBinAddr: 0x100001D08, symSize: 0x34 }
  - { offset: 0x2DE74, size: 0x8, addend: 0x0, symName: __ZNSt8__format16_Optional_localeC1ERKSt6locale, symObjAddr: 0x11D4, symBinAddr: 0x100001CD4, symSize: 0x34 }
  - { offset: 0x2DEB9, size: 0x8, addend: 0x0, symName: __ZNKSt17basic_string_viewIcSt11char_traitsIcEE4sizeEv, symObjAddr: 0x11BC, symBinAddr: 0x100001CBC, symSize: 0x18 }
  - { offset: 0x2DEDF, size: 0x8, addend: 0x0, symName: __ZNSt8__format23__should_escape_unicodeEDib, symObjAddr: 0x1144, symBinAddr: 0x100001C44, symSize: 0x78 }
  - { offset: 0x2DF1A, size: 0x8, addend: 0x0, symName: __ZNSt8__format11__is_xdigitEc, symObjAddr: 0x111C, symBinAddr: 0x100001C1C, symSize: 0x28 }
  - { offset: 0x2DF44, size: 0x8, addend: 0x0, symName: __ZNSt8__format10__is_digitEc, symObjAddr: 0x10F4, symBinAddr: 0x100001BF4, symSize: 0x28 }
  - { offset: 0x2DF6E, size: 0x8, addend: 0x0, symName: __ZNSt8__format29__failed_to_parse_format_specEv, symObjAddr: 0x10E0, symBinAddr: 0x100001BE0, symSize: 0x14 }
  - { offset: 0x2DF86, size: 0x8, addend: 0x0, symName: __ZNSt8__format33__invalid_arg_id_in_format_stringEv, symObjAddr: 0x10CC, symBinAddr: 0x100001BCC, symSize: 0x14 }
  - { offset: 0x2DF9E, size: 0x8, addend: 0x0, symName: __ZNSt8__format39__conflicting_indexing_in_format_stringEv, symObjAddr: 0x10B8, symBinAddr: 0x100001BB8, symSize: 0x14 }
  - { offset: 0x2DFB6, size: 0x8, addend: 0x0, symName: __ZNSt8__format40__unmatched_right_brace_in_format_stringEv, symObjAddr: 0x10A4, symBinAddr: 0x100001BA4, symSize: 0x14 }
  - { offset: 0x2DFCE, size: 0x8, addend: 0x0, symName: __ZNSt8__format39__unmatched_left_brace_in_format_stringEv, symObjAddr: 0x1090, symBinAddr: 0x100001B90, symSize: 0x14 }
  - { offset: 0x2DFE6, size: 0x8, addend: 0x0, symName: __ZSt20__throw_format_errorPKc, symObjAddr: 0x103C, symBinAddr: 0x100001B3C, symSize: 0x54 }
  - { offset: 0x2E030, size: 0x8, addend: 0x0, symName: __ZNSt12format_errorD0Ev, symObjAddr: 0x1014, symBinAddr: 0x100001B14, symSize: 0x28 }
  - { offset: 0x2E05A, size: 0x8, addend: 0x0, symName: __ZNSt12format_errorD1Ev, symObjAddr: 0xFE0, symBinAddr: 0x100001AE0, symSize: 0x34 }
  - { offset: 0x2E0A7, size: 0x8, addend: 0x0, symName: __ZNSt12format_errorC1EPKc, symObjAddr: 0xFA4, symBinAddr: 0x100001AA4, symSize: 0x3C }
  - { offset: 0x2E0D2, size: 0x8, addend: 0x0, symName: __ZNSt8__detail25__from_chars_alnum_to_valILb0EEEhh, symObjAddr: 0xF80, symBinAddr: 0x100001A80, symSize: 0x24 }
  - { offset: 0x2E10A, size: 0x8, addend: 0x0, symName: __ZNSt9__unicode9__v16_0_031_Grapheme_cluster_iterator_base20_M_update_incb_stateEDiNS0_13_Gcb_propertyE, symObjAddr: 0xF40, symBinAddr: 0x100001A40, symSize: 0x40 }
  - { offset: 0x2E14E, size: 0x8, addend: 0x0, symName: __ZNSt9__unicode9__v16_0_031_Grapheme_cluster_iterator_base18_M_update_ri_countENS0_13_Gcb_propertyE, symObjAddr: 0xEF8, symBinAddr: 0x1000019F8, symSize: 0x48 }
  - { offset: 0x2E189, size: 0x8, addend: 0x0, symName: __ZNSt9__unicode9__v16_0_031_Grapheme_cluster_iterator_base26_M_update_xpicto_seq_stateEDiNS0_13_Gcb_propertyE, symObjAddr: 0xDF8, symBinAddr: 0x1000018F8, symSize: 0x100 }
  - { offset: 0x2E1E6, size: 0x8, addend: 0x0, symName: __ZNSt9__unicode9__v16_0_031_Grapheme_cluster_iterator_base8_M_resetEDiNS0_13_Gcb_propertyE, symObjAddr: 0xDAC, symBinAddr: 0x1000018AC, symSize: 0x4C }
  - { offset: 0x2E22E, size: 0x8, addend: 0x0, symName: __ZNSt9__unicode9__v16_0_026__is_extended_pictographicEDi, symObjAddr: 0xD38, symBinAddr: 0x100001838, symSize: 0x74 }
  - { offset: 0x2E28A, size: 0x8, addend: 0x0, symName: __ZNSt9__unicode9__v16_0_015__incb_propertyEDi, symObjAddr: 0xCB4, symBinAddr: 0x1000017B4, symSize: 0x84 }
  - { offset: 0x2E308, size: 0x8, addend: 0x0, symName: __ZNSt9__unicode9__v16_0_016__is_incb_linkerEDi, symObjAddr: 0xC64, symBinAddr: 0x100001764, symSize: 0x50 }
  - { offset: 0x2E364, size: 0x8, addend: 0x0, symName: __ZNSt9__unicode9__v16_0_033__grapheme_cluster_break_propertyEDi, symObjAddr: 0xBF8, symBinAddr: 0x1000016F8, symSize: 0x6C }
  - { offset: 0x2E3E2, size: 0x8, addend: 0x0, symName: __ZNSt9__unicode9__v16_0_024__should_escape_categoryEDi, symObjAddr: 0xB84, symBinAddr: 0x100001684, symSize: 0x74 }
  - { offset: 0x2E460, size: 0x8, addend: 0x0, symName: __ZNSt9__unicode9__v16_0_013__field_widthEDi, symObjAddr: 0xB0C, symBinAddr: 0x10000160C, symSize: 0x78 }
  - { offset: 0x2E4C0, size: 0x8, addend: 0x0, symName: __ZNKSt9__unicode5_ReplclEv, symObjAddr: 0xAF8, symBinAddr: 0x1000015F8, symSize: 0x14 }
  - { offset: 0x2E4E6, size: 0x8, addend: 0x0, symName: __ZNSt9__unicode17__is_scalar_valueEDi, symObjAddr: 0xAA0, symBinAddr: 0x1000015A0, symSize: 0x58 }
  - { offset: 0x2E54C, size: 0x8, addend: 0x0, symName: __ZNKSt7__cxx1112basic_stringIcSt11char_traitsIcESaIcEE4sizeEv, symObjAddr: 0xA50, symBinAddr: 0x100001550, symSize: 0x50 }
  - { offset: 0x2E583, size: 0x8, addend: 0x0, symName: __ZSt11__bit_widthIjEiT_, symObjAddr: 0xA20, symBinAddr: 0x100001520, symSize: 0x30 }
  - { offset: 0x2E5C7, size: 0x8, addend: 0x0, symName: __ZSt8to_charsPcS_mi, symObjAddr: 0x9EC, symBinAddr: 0x1000014EC, symSize: 0x34 }
  - { offset: 0x2E624, size: 0x8, addend: 0x0, symName: __ZSt3minImERKT_S2_S2_, symObjAddr: 0x9B4, symBinAddr: 0x1000014B4, symSize: 0x38 }
  - { offset: 0x2E666, size: 0x8, addend: 0x0, symName: __ZNSt8__detail14__to_chars_lenIyEEjT_i, symObjAddr: 0x8D8, symBinAddr: 0x1000013D8, symSize: 0xDC }
  - { offset: 0x2E6E8, size: 0x8, addend: 0x0, symName: __ZNSt8__detail14__to_chars_lenImEEjT_i, symObjAddr: 0x7FC, symBinAddr: 0x1000012FC, symSize: 0xDC }
  - { offset: 0x2E76A, size: 0x8, addend: 0x0, symName: __ZNSt8__detail14__to_chars_lenIjEEjT_i, symObjAddr: 0x724, symBinAddr: 0x100001224, symSize: 0xD8 }
  - { offset: 0x2E7EC, size: 0x8, addend: 0x0, symName: __ZNSt7__cxx119to_stringEi, symObjAddr: 0x674, symBinAddr: 0x100001174, symSize: 0xB0 }
  - { offset: 0x2E87F, size: 0x8, addend: 0x0, symName: __ZZNSt7__cxx119to_stringEiENKUlPcmE_clES0_m, symObjAddr: 0x618, symBinAddr: 0x100001118, symSize: 0x5C }
  - { offset: 0x2EA02, size: 0x8, addend: 0x0, symName: __ZNSt7__cxx1112basic_stringIcSt11char_traitsIcESaIcEE12_Alloc_hiderC1EPcOS3_, symObjAddr: 0x5C0, symBinAddr: 0x1000010C0, symSize: 0x58 }
  - { offset: 0x2EB1A, size: 0x8, addend: 0x0, symName: __ZNSt19__ptr_traits_ptr_toIPccLb0EE10pointer_toERc, symObjAddr: 0x598, symBinAddr: 0x100001098, symSize: 0x28 }
  - { offset: 0x2EB8D, size: 0x8, addend: 0x0, symName: __ZNSt7__cxx1112basic_stringIcSt11char_traitsIcESaIcEE13_M_local_dataEv, symObjAddr: 0x578, symBinAddr: 0x100001078, symSize: 0x20 }
  - { offset: 0x2EBD1, size: 0x8, addend: 0x0, symName: __ZNSt7__cxx1112basic_stringIcSt11char_traitsIcESaIcEEC1EvQ26is_default_constructible_vIT1_E, symObjAddr: 0x4CC, symBinAddr: 0x100000FCC, symSize: 0xAC }
  - { offset: 0x2ECBD, size: 0x8, addend: 0x0, symName: __ZNSt7__cxx1112basic_stringIcSt11char_traitsIcESaIcEE12_Alloc_hiderD1Ev, symObjAddr: 0x4AC, symBinAddr: 0x100000FAC, symSize: 0x20 }
  - { offset: 0x2ED02, size: 0x8, addend: 0x0, symName: __ZSt10__sv_checkmmPKc, symObjAddr: 0x450, symBinAddr: 0x100000F50, symSize: 0x5C }
  - { offset: 0x2ED4B, size: 0x8, addend: 0x0, symName: __ZN9__gnu_cxx5__ops15__val_less_iterEv, symObjAddr: 0x448, symBinAddr: 0x100000F48, symSize: 0x8 }
  - { offset: 0x2ED63, size: 0x8, addend: 0x0, symName: __ZN9__gnu_cxx5__ops15__iter_less_valEv, symObjAddr: 0x440, symBinAddr: 0x100000F40, symSize: 0x8 }
  - { offset: 0x2ED7B, size: 0x8, addend: 0x0, symName: __ZNSt11char_traitsIcE6assignEPcmc, symObjAddr: 0x3CC, symBinAddr: 0x100000ECC, symSize: 0x74 }
  - { offset: 0x2EDE1, size: 0x8, addend: 0x0, symName: __ZNSt11char_traitsIcE4copyEPcPKcm, symObjAddr: 0x354, symBinAddr: 0x100000E54, symSize: 0x78 }
  - { offset: 0x2EE47, size: 0x8, addend: 0x0, symName: __ZNSt11char_traitsIcE4moveEPcPKcm, symObjAddr: 0x2EC, symBinAddr: 0x100000DEC, symSize: 0x68 }
  - { offset: 0x2EEAD, size: 0x8, addend: 0x0, symName: __ZNSt11char_traitsIcE4findEPKcmRS1_, symObjAddr: 0x27C, symBinAddr: 0x100000D7C, symSize: 0x70 }
  - { offset: 0x2EF13, size: 0x8, addend: 0x0, symName: __ZNSt11char_traitsIcE6lengthEPKc, symObjAddr: 0x240, symBinAddr: 0x100000D40, symSize: 0x3C }
  - { offset: 0x2EF57, size: 0x8, addend: 0x0, symName: __ZNSt11char_traitsIcE7compareEPKcS2_m, symObjAddr: 0x150, symBinAddr: 0x100000C50, symSize: 0xF0 }
  - { offset: 0x2EFE1, size: 0x8, addend: 0x0, symName: __ZNSt11char_traitsIcE2ltERKcS2_, symObjAddr: 0x118, symBinAddr: 0x100000C18, symSize: 0x38 }
  - { offset: 0x2F01C, size: 0x8, addend: 0x0, symName: __ZNSt11char_traitsIcE2eqERKcS2_, symObjAddr: 0xE8, symBinAddr: 0x100000BE8, symSize: 0x30 }
  - { offset: 0x2F057, size: 0x8, addend: 0x0, symName: __ZNSt11char_traitsIcE6assignERcRKc, symObjAddr: 0x9C, symBinAddr: 0x100000B9C, symSize: 0x4C }
  - { offset: 0x2F0B3, size: 0x8, addend: 0x0, symName: __ZdlPvS_, symObjAddr: 0x84, symBinAddr: 0x100000B84, symSize: 0x18 }
  - { offset: 0x2F0E9, size: 0x8, addend: 0x0, symName: __ZnwmPv, symObjAddr: 0x6C, symBinAddr: 0x100000B6C, symSize: 0x18 }
  - { offset: 0x2F11B, size: 0x8, addend: 0x0, symName: __ZStltSt15strong_orderingNSt9__cmp_cat8__unspecE, symObjAddr: 0x48, symBinAddr: 0x100000B48, symSize: 0x24 }
  - { offset: 0x2F14E, size: 0x8, addend: 0x0, symName: __ZSteqSt15strong_orderingNSt9__cmp_cat8__unspecE, symObjAddr: 0x24, symBinAddr: 0x100000B24, symSize: 0x24 }
  - { offset: 0x2F181, size: 0x8, addend: 0x0, symName: __ZSt21is_constant_evaluatedv, symObjAddr: 0x1C, symBinAddr: 0x100000B1C, symSize: 0x8 }
  - { offset: 0x361E7, size: 0x8, addend: 0x0, symName: __ZSt12construct_atIP4CardJS1_EQaant20is_unbounded_array_vIT_ErqXgsnwcvPvLi0E_S2_pispcl7declvalIT0_EEEEEPS2_S5_DpOS4_, symObjAddr: 0xE64, symBinAddr: 0x100016F70, symSize: 0x70 }
  - { offset: 0x36327, size: 0x8, addend: 0x0, symName: __ZSt19__relocate_object_aIP4CardS1_SaIS1_EEvPT_PT0_RT1_, symObjAddr: 0xDE4, symBinAddr: 0x100016EF0, symSize: 0x80 }
  - { offset: 0x364A6, size: 0x8, addend: 0x0, symName: __ZNSt15__new_allocatorIP4CardE10deallocateEPS1_m, symObjAddr: 0xDB4, symBinAddr: 0x100016EC0, symSize: 0x30 }
  - { offset: 0x36502, size: 0x8, addend: 0x0, symName: __ZSt14__relocate_a_1IPP4CardN9__gnu_cxx17__normal_iteratorIS2_vEESaIS1_EET0_T_S8_S7_RT1_, symObjAddr: 0xD38, symBinAddr: 0x100016E44, symSize: 0x7C }
  - { offset: 0x36619, size: 0x8, addend: 0x0, symName: __ZNSt15__new_allocatorIP4CardE8allocateEmPKv, symObjAddr: 0xCBC, symBinAddr: 0x100016DC8, symSize: 0x7C }
  - { offset: 0x366BB, size: 0x8, addend: 0x0, symName: __ZSt14__relocate_a_1IP4CardS1_ENSt9enable_ifIXsrSt24__is_bitwise_relocatableIT_vE5valueEPS4_E4typeES6_S6_S6_RSaIT0_E, symObjAddr: 0xC14, symBinAddr: 0x100016D20, symSize: 0xA8 }
  - { offset: 0x3680D, size: 0x8, addend: 0x0, symName: __ZSt10destroy_atIP4CardEvPT_, symObjAddr: 0xC00, symBinAddr: 0x100016D0C, symSize: 0x14 }
  - { offset: 0x368C9, size: 0x8, addend: 0x0, symName: __ZSt12__relocate_aIPP4CardS2_SaIS1_EET0_T_S5_S4_RT1_, symObjAddr: 0xBB4, symBinAddr: 0x100016CC0, symSize: 0x4C }
  - { offset: 0x369D1, size: 0x8, addend: 0x0, symName: __ZSt8_DestroyIPP4CardEvT_S3_, symObjAddr: 0xB58, symBinAddr: 0x100016C64, symSize: 0x5C }
  - { offset: 0x36A53, size: 0x8, addend: 0x0, symName: __ZNSt12_Vector_baseIP4CardSaIS1_EE13_M_deallocateEPS1_m, symObjAddr: 0xACC, symBinAddr: 0x100016BD8, symSize: 0x8C }
  - { offset: 0x36B77, size: 0x8, addend: 0x0, symName: __ZNKSt6vectorIP4CardSaIS1_EE3endEv, symObjAddr: 0xA9C, symBinAddr: 0x100016BA8, symSize: 0x30 }
  - { offset: 0x36BCB, size: 0x8, addend: 0x0, symName: __ZNKSt6vectorIP4CardSaIS1_EE5beginEv, symObjAddr: 0xA70, symBinAddr: 0x100016B7C, symSize: 0x2C }
  - { offset: 0x36C1B, size: 0x8, addend: 0x0, symName: __ZNSt6vectorIP4CardSaIS1_EE11_S_relocateEPS1_S4_S4_RS2_, symObjAddr: 0xA3C, symBinAddr: 0x100016B48, symSize: 0x34 }
  - { offset: 0x36CB4, size: 0x8, addend: 0x0, symName: __ZNSt6vectorIP4CardSaIS1_EE12_Guard_allocD1Ev, symObjAddr: 0x9F0, symBinAddr: 0x100016AFC, symSize: 0x4C }
  - { offset: 0x36D1E, size: 0x8, addend: 0x0, symName: __ZNSt6vectorIP4CardSaIS1_EE12_Guard_allocC1EPS1_mRSt12_Vector_baseIS1_S2_E, symObjAddr: 0x9AC, symBinAddr: 0x100016AB8, symSize: 0x44 }
  - { offset: 0x36D5F, size: 0x8, addend: 0x0, symName: __ZNSt12_Vector_baseIP4CardSaIS1_EE11_M_allocateEm, symObjAddr: 0x8E8, symBinAddr: 0x1000169F4, symSize: 0xC4 }
  - { offset: 0x36E1F, size: 0x8, addend: 0x0, symName: __ZSt12construct_atIP4CardJRKS1_EQaant20is_unbounded_array_vIT_ErqXgsnwcvPvLi0E_S4_pispcl7declvalIT0_EEEEEPS4_S7_DpOS6_, symObjAddr: 0x878, symBinAddr: 0x100016984, symSize: 0x70 }
  - { offset: 0x36F05, size: 0x8, addend: 0x0, symName: __ZNSt12_Vector_baseIP4CardSaIS1_EE19_M_get_Tp_allocatorEv, symObjAddr: 0x864, symBinAddr: 0x100016970, symSize: 0x14 }
  - { offset: 0x36F49, size: 0x8, addend: 0x0, symName: __ZNSt12_Vector_baseIP4CardSaIS1_EED2Ev, symObjAddr: 0x814, symBinAddr: 0x100016920, symSize: 0x50 }
  - { offset: 0x36F8C, size: 0x8, addend: 0x0, symName: __ZNSt12_Vector_baseIP4CardSaIS1_EE12_Vector_implD1Ev, symObjAddr: 0x7F4, symBinAddr: 0x100016900, symSize: 0x20 }
  - { offset: 0x3700F, size: 0x8, addend: 0x0, symName: __ZNKSt6vectorIP4CardSaIS1_EE5emptyEv, symObjAddr: 0x79C, symBinAddr: 0x1000168A8, symSize: 0x58 }
  - { offset: 0x370A8, size: 0x8, addend: 0x0, symName: __ZNSt6vectorIP4CardSaIS1_EE17_M_realloc_appendIJRKS1_EEEvDpOT_, symObjAddr: 0x5EC, symBinAddr: 0x1000166F8, symSize: 0x1B0 }
  - { offset: 0x372F9, size: 0x8, addend: 0x0, symName: __ZNSt6vectorIP4CardSaIS1_EE5beginEv, symObjAddr: 0x5C0, symBinAddr: 0x1000166CC, symSize: 0x2C }
  - { offset: 0x3734D, size: 0x8, addend: 0x0, symName: __ZNSt6vectorIP4CardSaIS1_EE3endEv, symObjAddr: 0x590, symBinAddr: 0x10001669C, symSize: 0x30 }
  - { offset: 0x373D9, size: 0x8, addend: 0x0, symName: __ZNSt6vectorIP4CardSaIS1_EE11_S_max_sizeERKS2_, symObjAddr: 0x55C, symBinAddr: 0x100016668, symSize: 0x34 }
  - { offset: 0x37429, size: 0x8, addend: 0x0, symName: __ZNKSt12_Vector_baseIP4CardSaIS1_EE19_M_get_Tp_allocatorEv, symObjAddr: 0x548, symBinAddr: 0x100016654, symSize: 0x14 }
  - { offset: 0x37453, size: 0x8, addend: 0x0, symName: __ZNKSt6vectorIP4CardSaIS1_EE8max_sizeEv, symObjAddr: 0x528, symBinAddr: 0x100016634, symSize: 0x20 }
  - { offset: 0x3747D, size: 0x8, addend: 0x0, symName: __ZNKSt6vectorIP4CardSaIS1_EE12_M_check_lenEmPKc, symObjAddr: 0x458, symBinAddr: 0x100016564, symSize: 0xD0 }
  - { offset: 0x37522, size: 0x8, addend: 0x0, symName: __ZNSt6vectorIP4CardSaIS1_EEixEm, symObjAddr: 0x3D4, symBinAddr: 0x1000164E0, symSize: 0x84 }
  - { offset: 0x37594, size: 0x8, addend: 0x0, symName: __ZNSt6vectorIP4CardSaIS1_EED1Ev, symObjAddr: 0x378, symBinAddr: 0x100016484, symSize: 0x5C }
  - { offset: 0x375F0, size: 0x8, addend: 0x0, symName: __ZNKSt6vectorIP4CardSaIS1_EE4sizeEv, symObjAddr: 0x338, symBinAddr: 0x100016444, symSize: 0x40 }
  - { offset: 0x3762B, size: 0x8, addend: 0x0, symName: __ZNSt6vectorIP4CardSaIS1_EE4backEv, symObjAddr: 0x29C, symBinAddr: 0x1000163A8, symSize: 0x9C }
  - { offset: 0x376E4, size: 0x8, addend: 0x0, symName: __ZNSt6vectorIP4CardSaIS1_EE9push_backERKS1_, symObjAddr: 0x20C, symBinAddr: 0x100016318, symSize: 0x90 }
  - { offset: 0x37775, size: 0x8, addend: 0x0, symName: __ZSt3maxImERKT_S2_S2_, symObjAddr: 0x1D4, symBinAddr: 0x1000162E0, symSize: 0x38 }
  - { offset: 0x377FA, size: 0x8, addend: 0x0, symName: __ZN11DiscardPileD1Ev, symObjAddr: 0x154, symBinAddr: 0x100016260, symSize: 0x80 }
  - { offset: 0x3787E, size: 0x8, addend: 0x0, symName: __ZN11DiscardPileD2Ev, symObjAddr: 0xD4, symBinAddr: 0x1000161E0, symSize: 0x80 }
  - { offset: 0x37901, size: 0x8, addend: 0x0, symName: __ZN11DiscardPile4sizeEv, symObjAddr: 0xB8, symBinAddr: 0x1000161C4, symSize: 0x1C }
  - { offset: 0x3792E, size: 0x8, addend: 0x0, symName: __ZN11DiscardPile3topEv, symObjAddr: 0x98, symBinAddr: 0x1000161A4, symSize: 0x20 }
  - { offset: 0x3795B, size: 0x8, addend: 0x0, symName: __ZN11DiscardPile3addEP4Card, symObjAddr: 0x70, symBinAddr: 0x10001617C, symSize: 0x28 }
  - { offset: 0x3EE71, size: 0x8, addend: 0x0, symName: __ZNSt23mersenne_twister_engineIjLm32ELm624ELm397ELm31ELj2567483615ELm11ELj4294967295ELm7ELj2636928640ELm15ELj4022730752ELm18ELj1812433253EE11_M_gen_randEv, symObjAddr: 0x2258, symBinAddr: 0x100017CFC, symSize: 0x1C0 }
  - { offset: 0x3EF5A, size: 0x8, addend: 0x0, symName: __ZNSt8__detail4_ModIjLj624ELj1ELj0ELb1ELb1EE6__calcEj, symObjAddr: 0x2220, symBinAddr: 0x100017CC4, symSize: 0x38 }
  - { offset: 0x3EF93, size: 0x8, addend: 0x0, symName: __ZNSt8__detail4_ModIjLj0ELj1ELj0ELb1ELb0EE6__calcEj, symObjAddr: 0x2204, symBinAddr: 0x100017CA8, symSize: 0x1C }
  - { offset: 0x3EFD4, size: 0x8, addend: 0x0, symName: __ZNSt23mersenne_twister_engineIjLm32ELm624ELm397ELm31ELj2567483615ELm11ELj4294967295ELm7ELj2636928640ELm15ELj4022730752ELm18ELj1812433253EEclEv, symObjAddr: 0x1FD0, symBinAddr: 0x100017BF4, symSize: 0xB4 }
  - { offset: 0x3F011, size: 0x8, addend: 0x0, symName: __ZNSt24uniform_int_distributionIiE5_S_ndIySt23mersenne_twister_engineIjLm32ELm624ELm397ELm31ELj2567483615ELm11ELj4294967295ELm7ELj2636928640ELm15ELj4022730752ELm18ELj1812433253EEjEET1_RT0_S4_, symObjAddr: 0x1F2C, symBinAddr: 0x100017B50, symSize: 0xA4 }
  - { offset: 0x3F0B1, size: 0x8, addend: 0x0, symName: __ZNKSt24uniform_int_distributionIiE10param_type1aEv, symObjAddr: 0x1F14, symBinAddr: 0x100017B38, symSize: 0x18 }
  - { offset: 0x3F0DB, size: 0x8, addend: 0x0, symName: __ZNKSt24uniform_int_distributionIiE10param_type1bEv, symObjAddr: 0x1EFC, symBinAddr: 0x100017B20, symSize: 0x18 }
  - { offset: 0x3F101, size: 0x8, addend: 0x0, symName: __ZNSt8__detail5__modIjLj624ELj1ELj0EEET_S1_, symObjAddr: 0x1EE0, symBinAddr: 0x100017B04, symSize: 0x1C }
  - { offset: 0x3F152, size: 0x8, addend: 0x0, symName: __ZNSt8__detail5__modIjLj0ELj1ELj0EEET_S1_, symObjAddr: 0x1EC4, symBinAddr: 0x100017AE8, symSize: 0x1C }
  - { offset: 0x3F20D, size: 0x8, addend: 0x0, symName: __ZNSt24uniform_int_distributionIiEclISt23mersenne_twister_engineIjLm32ELm624ELm397ELm31ELj2567483615ELm11ELj4294967295ELm7ELj2636928640ELm15ELj4022730752ELm18ELj1812433253EEEEiRT_RKNS0_10param_typeE, symObjAddr: 0x18F8, symBinAddr: 0x100017A40, symSize: 0xA8 }
  - { offset: 0x3F385, size: 0x8, addend: 0x0, symName: __ZNSt24uniform_int_distributionIiE10param_typeC1Eii, symObjAddr: 0x1878, symBinAddr: 0x1000179C0, symSize: 0x80 }
  - { offset: 0x3F3D5, size: 0x8, addend: 0x0, symName: __ZNSt23mersenne_twister_engineIjLm32ELm624ELm397ELm31ELj2567483615ELm11ELj4294967295ELm7ELj2636928640ELm15ELj4022730752ELm18ELj1812433253EE4seedEj, symObjAddr: 0x17AC, symBinAddr: 0x1000178F4, symSize: 0xCC }
  - { offset: 0x3F472, size: 0x8, addend: 0x0, symName: __ZNSt12_Vector_baseIP4CardSaIS1_EE17_Vector_impl_dataC2Ev, symObjAddr: 0x139C, symBinAddr: 0x1000178C8, symSize: 0x2C }
  - { offset: 0x3F4AE, size: 0x8, addend: 0x0, symName: __ZNSt6vectorIP4CardSaIS1_EE8pop_backEv, symObjAddr: 0xFAC, symBinAddr: 0x100017838, symSize: 0x90 }
  - { offset: 0x3F51E, size: 0x8, addend: 0x0, symName: __ZSt4swapIP4CardENSt9enable_ifIXsrSt6__and_IJSt6__not_ISt15__is_tuple_likeIT_EESt21is_move_constructibleIS6_ESt18is_move_assignableIS6_EEE5valueEvE4typeERS6_SG_, symObjAddr: 0xEBC, symBinAddr: 0x1000177E4, symSize: 0x54 }
  - { offset: 0x3F5DA, size: 0x8, addend: 0x0, symName: __ZNSt24uniform_int_distributionIiEclISt23mersenne_twister_engineIjLm32ELm624ELm397ELm31ELj2567483615ELm11ELj4294967295ELm7ELj2636928640ELm15ELj4022730752ELm18ELj1812433253EEEEiRT_, symObjAddr: 0xE0C, symBinAddr: 0x1000177B8, symSize: 0x2C }
  - { offset: 0x3F651, size: 0x8, addend: 0x0, symName: __ZNSt24uniform_int_distributionIiEC1Eii, symObjAddr: 0xDDC, symBinAddr: 0x100017788, symSize: 0x30 }
  - { offset: 0x3F6B1, size: 0x8, addend: 0x0, symName: __ZNSt23mersenne_twister_engineIjLm32ELm624ELm397ELm31ELj2567483615ELm11ELj4294967295ELm7ELj2636928640ELm15ELj4022730752ELm18ELj1812433253EEC1Ej, symObjAddr: 0xD74, symBinAddr: 0x100017760, symSize: 0x28 }
  - { offset: 0x3F6FA, size: 0x8, addend: 0x0, symName: __ZNSt12_Vector_baseIP4CardSaIS1_EE12_Vector_implC1EvQ26is_default_constructible_vIN9__gnu_cxx14__alloc_traitsIT0_NS7_10value_typeEE6rebindIT_E5otherEE, symObjAddr: 0xC00, symBinAddr: 0x100017728, symSize: 0x38 }
  - { offset: 0x3F7A3, size: 0x8, addend: 0x0, symName: __ZN8DrawDeckD1Ev, symObjAddr: 0x8C0, symBinAddr: 0x1000176A8, symSize: 0x80 }
  - { offset: 0x3F827, size: 0x8, addend: 0x0, symName: __ZN8DrawDeckD2Ev, symObjAddr: 0x840, symBinAddr: 0x100017628, symSize: 0x80 }
  - { offset: 0x3F8AA, size: 0x8, addend: 0x0, symName: __ZN8DrawDeck4sizeEv, symObjAddr: 0x824, symBinAddr: 0x10001760C, symSize: 0x1C }
  - { offset: 0x3F8D7, size: 0x8, addend: 0x0, symName: __ZN8DrawDeck3topEv, symObjAddr: 0x804, symBinAddr: 0x1000175EC, symSize: 0x20 }
  - { offset: 0x3F904, size: 0x8, addend: 0x0, symName: __ZN8DrawDeck4drawEv, symObjAddr: 0x7D4, symBinAddr: 0x1000175BC, symSize: 0x30 }
  - { offset: 0x3F940, size: 0x8, addend: 0x0, symName: __ZN8DrawDeck7shuffleEv, symObjAddr: 0x6EC, symBinAddr: 0x1000174D4, symSize: 0xE8 }
  - { offset: 0x3FA5B, size: 0x8, addend: 0x0, symName: __ZN8DrawDeckC1Ev, symObjAddr: 0x570, symBinAddr: 0x100017358, symSize: 0x17C }
  - { offset: 0x3FB27, size: 0x8, addend: 0x0, symName: __ZN8DrawDeckC2Ev, symObjAddr: 0x3F4, symBinAddr: 0x1000171DC, symSize: 0x17C }
  - { offset: 0x3FC09, size: 0x8, addend: 0x0, symName: __ZNSt6vectorIP4CardSaIS1_EEC1Ev, symObjAddr: 0x3D4, symBinAddr: 0x1000171BC, symSize: 0x20 }
  - { offset: 0x3FC49, size: 0x8, addend: 0x0, symName: __ZNSt12_Vector_baseIP4CardSaIS1_EEC2Ev, symObjAddr: 0x3B4, symBinAddr: 0x10001719C, symSize: 0x20 }
  - { offset: 0x3FC6F, size: 0x8, addend: 0x0, symName: __ZNSt13random_deviceclEv, symObjAddr: 0x378, symBinAddr: 0x100017180, symSize: 0x1C }
  - { offset: 0x3FCB3, size: 0x8, addend: 0x0, symName: __ZNSt13random_deviceD1Ev, symObjAddr: 0x358, symBinAddr: 0x100017160, symSize: 0x20 }
  - { offset: 0x3FCF3, size: 0x8, addend: 0x0, symName: __ZNSt13random_deviceC1Ev, symObjAddr: 0x2D4, symBinAddr: 0x1000170DC, symSize: 0x84 }
  - { offset: 0x3FDD3, size: 0x8, addend: 0x0, symName: __ZN4CardC1E5Color5Label, symObjAddr: 0x1D8, symBinAddr: 0x100016FE0, symSize: 0xFC }
  - { offset: 0x4A7D2, size: 0x8, addend: 0x0, symName: __ZNSt10_Head_baseILm0ERKiLb0EE7_M_headERS2_, symObjAddr: 0x3388, symBinAddr: 0x10001B19C, symSize: 0x18 }
  - { offset: 0x4A7FB, size: 0x8, addend: 0x0, symName: __ZNSt11_Tuple_implILm0EJRKiEE7_M_headERS2_, symObjAddr: 0x336C, symBinAddr: 0x10001B180, symSize: 0x1C }
  - { offset: 0x4A825, size: 0x8, addend: 0x0, symName: __ZSt12__get_helperILm0ERKiJEERT0_RSt11_Tuple_implIXT_EJS2_DpT1_EE, symObjAddr: 0x3350, symBinAddr: 0x10001B164, symSize: 0x1C }
  - { offset: 0x4A867, size: 0x8, addend: 0x0, symName: __ZSt3getILm0EJRKiEERNSt13tuple_elementIXT_ESt5tupleIJDpT0_EEE4typeERS6_, symObjAddr: 0x3334, symBinAddr: 0x10001B148, symSize: 0x1C }
  - { offset: 0x4A8A6, size: 0x8, addend: 0x0, symName: __ZSt12construct_atISt4pairIKiP4CardEJRKS4_EQaant20is_unbounded_array_vIT_ErqXgsnwcvPvLi0E_S7_pispcl7declvalIT0_EEEEEPS7_SA_DpOS9_, symObjAddr: 0x32C4, symBinAddr: 0x10001B0D8, symSize: 0x70 }
  - { offset: 0x4A92F, size: 0x8, addend: 0x0, symName: __ZSt12construct_atIiJiEQaant20is_unbounded_array_vIT_ErqXgsnwcvPvLi0E_S0_pispcl7declvalIT0_EEEEEPS0_S3_DpOS2_, symObjAddr: 0x3254, symBinAddr: 0x10001B068, symSize: 0x70 }
  - { offset: 0x4AA22, size: 0x8, addend: 0x0, symName: __ZNSt4pairIKiP4CardEC1IJRS0_EJLm0EEJEJEEERSt5tupleIJDpT_EERS6_IJDpT1_EESt12_Index_tupleIJXspT0_EEESF_IJXspT2_EEE, symObjAddr: 0x3208, symBinAddr: 0x10001B01C, symSize: 0x4C }
  - { offset: 0x4ABB7, size: 0x8, addend: 0x0, symName: __ZNK9__gnu_cxx16__aligned_membufISt4pairIKiP4CardEE7_M_addrEv, symObjAddr: 0x31F4, symBinAddr: 0x10001B008, symSize: 0x14 }
  - { offset: 0x4AC2C, size: 0x8, addend: 0x0, symName: __ZNSt4pairIKiP4CardEC1IJRS0_EJEEESt21piecewise_construct_tSt5tupleIJDpT_EES7_IJDpT0_EE, symObjAddr: 0x31B8, symBinAddr: 0x10001AFCC, symSize: 0x3C }
  - { offset: 0x4ACA6, size: 0x8, addend: 0x0, symName: __ZNSt11_Tuple_implILm0EJRKiEEC2EOS2_, symObjAddr: 0x3190, symBinAddr: 0x10001AFA4, symSize: 0x28 }
  - { offset: 0x4ACD5, size: 0x8, addend: 0x0, symName: __ZNSt15__new_allocatorISt13_Rb_tree_nodeISt4pairIKiP4CardEEE8allocateEmPKv, symObjAddr: 0x3100, symBinAddr: 0x10001AF14, symSize: 0x90 }
  - { offset: 0x4AD4B, size: 0x8, addend: 0x0, symName: __ZNSt8_Rb_treeIiSt4pairIKiP4CardESt10_Select1stIS4_ESt4lessIiESaIS4_EE17_M_construct_nodeIJRKS4_EEEvPSt13_Rb_tree_nodeIS4_EDpOT_, symObjAddr: 0x3048, symBinAddr: 0x10001AE5C, symSize: 0xB8 }
  - { offset: 0x4AE69, size: 0x8, addend: 0x0, symName: __ZSt19__relocate_object_aIiiSaIiEEvPT_PT0_RT1_, symObjAddr: 0x2FC8, symBinAddr: 0x10001ADDC, symSize: 0x80 }
  - { offset: 0x4AFE8, size: 0x8, addend: 0x0, symName: __ZNK9__gnu_cxx16__aligned_membufISt4pairIKiP4CardEE6_M_ptrEv, symObjAddr: 0x2FAC, symBinAddr: 0x10001ADC0, symSize: 0x1C }
  - { offset: 0x4B01A, size: 0x8, addend: 0x0, symName: __ZSt12construct_atISt4pairIKiP4CardEJRKSt21piecewise_construct_tSt5tupleIJRS1_EES8_IJEEEQaant20is_unbounded_array_vIT_ErqXgsnwcvPvLi0E_SC_pispcl7declvalIT0_EEEEEPSC_SF_DpOSE_, symObjAddr: 0x2ECC, symBinAddr: 0x10001ACE0, symSize: 0xE0 }
  - { offset: 0x4B0DE, size: 0x8, addend: 0x0, symName: __ZNSt5tupleIJRKiEEC1EOS2_, symObjAddr: 0x2EA4, symBinAddr: 0x10001ACB8, symSize: 0x28 }
  - { offset: 0x4B154, size: 0x8, addend: 0x0, symName: __ZNSt8_Rb_treeIiSt4pairIKiP4CardESt10_Select1stIS4_ESt4lessIiESaIS4_EE14_M_create_nodeIJRKS4_EEEPSt13_Rb_tree_nodeIS4_EDpOT_, symObjAddr: 0x2E60, symBinAddr: 0x10001AC74, symSize: 0x44 }
  - { offset: 0x4B1D2, size: 0x8, addend: 0x0, symName: __ZNSt15__new_allocatorISt13_Rb_tree_nodeISt4pairIKiP4CardEEE10deallocateEPS6_m, symObjAddr: 0x2E24, symBinAddr: 0x10001AC38, symSize: 0x3C }
  - { offset: 0x4B22E, size: 0x8, addend: 0x0, symName: __ZSt14__relocate_a_1IPiN9__gnu_cxx17__normal_iteratorIS0_vEESaIiEET0_T_S6_S5_RT1_, symObjAddr: 0x2DA8, symBinAddr: 0x10001ABBC, symSize: 0x7C }
  - { offset: 0x4B345, size: 0x8, addend: 0x0, symName: __ZNSt15__new_allocatorIiE8allocateEmPKv, symObjAddr: 0x2D2C, symBinAddr: 0x10001AB40, symSize: 0x7C }
  - { offset: 0x4B3BB, size: 0x8, addend: 0x0, symName: __ZNKSt10_Select1stISt4pairIKiP4CardEEclERKS4_, symObjAddr: 0x2D14, symBinAddr: 0x10001AB28, symSize: 0x18 }
  - { offset: 0x4B3F6, size: 0x8, addend: 0x0, symName: __ZNKSt13_Rb_tree_nodeISt4pairIKiP4CardEE9_M_valptrEv, symObjAddr: 0x2CF4, symBinAddr: 0x10001AB08, symSize: 0x20 }
  - { offset: 0x4B4CA, size: 0x8, addend: 0x0, symName: __ZNKSt8_Rb_treeIiSt4pairIKiP4CardESt10_Select1stIS4_ESt4lessIiESaIS4_EE11_Alloc_nodeclIRKS4_EEPSt13_Rb_tree_nodeIS4_EOT_, symObjAddr: 0x2CC4, symBinAddr: 0x10001AAD8, symSize: 0x30 }
  - { offset: 0x4B582, size: 0x8, addend: 0x0, symName: __ZSt10destroy_atISt4pairIKiP4CardEEvPT_, symObjAddr: 0x2CB0, symBinAddr: 0x10001AAC4, symSize: 0x14 }
  - { offset: 0x4B5B4, size: 0x8, addend: 0x0, symName: __ZSt14__relocate_a_1IiiENSt9enable_ifIXsrSt24__is_bitwise_relocatableIT_vE5valueEPS2_E4typeES4_S4_S4_RSaIT0_E, symObjAddr: 0x2C08, symBinAddr: 0x10001AA1C, symSize: 0xA8 }
  - { offset: 0x4B70A, size: 0x8, addend: 0x0, symName: __ZNSt15__new_allocatorIiE10deallocateEPim, symObjAddr: 0x2BD8, symBinAddr: 0x10001A9EC, symSize: 0x30 }
  - { offset: 0x4B750, size: 0x8, addend: 0x0, symName: __ZNSt9__rb_tree12_Node_traitsISt4pairIKiP4CardEPS5_E23_S_insert_and_rebalanceEbPSt18_Rb_tree_node_baseS9_RS8_, symObjAddr: 0x2BA0, symBinAddr: 0x10001A9B4, symSize: 0x38 }
  - { offset: 0x4B801, size: 0x8, addend: 0x0, symName: __ZNSt8_Rb_treeIiSt4pairIKiP4CardESt10_Select1stIS4_ESt4lessIiESaIS4_EE6_S_keyERKSt13_Rb_tree_nodeIS4_E, symObjAddr: 0x2B78, symBinAddr: 0x10001A98C, symSize: 0x28 }
  - { offset: 0x4B82F, size: 0x8, addend: 0x0, symName: __ZNSt8_Rb_treeIiSt4pairIKiP4CardESt10_Select1stIS4_ESt4lessIiESaIS4_EE17_M_construct_nodeIJRKSt21piecewise_construct_tSt5tupleIJRS1_EESF_IJEEEEEvPSt13_Rb_tree_nodeIS4_EDpOT_, symObjAddr: 0x2A54, symBinAddr: 0x10001A868, symSize: 0x124 }
  - { offset: 0x4BA16, size: 0x8, addend: 0x0, symName: __ZNSt8_Rb_treeIiSt4pairIKiP4CardESt10_Select1stIS4_ESt4lessIiESaIS4_EE11_M_get_nodeEv, symObjAddr: 0x2980, symBinAddr: 0x10001A794, symSize: 0xD4 }
  - { offset: 0x4BAAF, size: 0x8, addend: 0x0, symName: __ZNSt8_Rb_treeIiSt4pairIKiP4CardESt10_Select1stIS4_ESt4lessIiESaIS4_EE7_S_leftEPSt18_Rb_tree_node_base, symObjAddr: 0x2968, symBinAddr: 0x10001A77C, symSize: 0x18 }
  - { offset: 0x4BAE3, size: 0x8, addend: 0x0, symName: __ZNSt8_Rb_treeIiSt4pairIKiP4CardESt10_Select1stIS4_ESt4lessIiESaIS4_EE13_M_clone_nodeILb0ENSA_11_Alloc_nodeEEEPSt13_Rb_tree_nodeIS4_ESF_RT0_, symObjAddr: 0x2900, symBinAddr: 0x10001A714, symSize: 0x68 }
  - { offset: 0x4BBD2, size: 0x8, addend: 0x0, symName: __ZSt12__relocate_aIPiS0_SaIiEET0_T_S3_S2_RT1_, symObjAddr: 0x28B4, symBinAddr: 0x10001A6C8, symSize: 0x4C }
  - { offset: 0x4BCDA, size: 0x8, addend: 0x0, symName: __ZSt10destroy_atIiEvPT_, symObjAddr: 0x28A0, symBinAddr: 0x10001A6B4, symSize: 0x14 }
  - { offset: 0x4BD5E, size: 0x8, addend: 0x0, symName: __ZNSt8_Rb_treeIiSt4pairIKiP4CardESt10_Select1stIS4_ESt4lessIiESaIS4_EE14_M_insert_nodeEPSt18_Rb_tree_node_baseSC_PSt13_Rb_tree_nodeIS4_E, symObjAddr: 0x27C4, symBinAddr: 0x10001A5D8, symSize: 0xDC }
  - { offset: 0x4BDD9, size: 0x8, addend: 0x0, symName: __ZNSt8_Rb_treeIiSt4pairIKiP4CardESt10_Select1stIS4_ESt4lessIiESaIS4_EE6_S_keyEPSt13_Rb_tree_nodeIS4_E, symObjAddr: 0x27A8, symBinAddr: 0x10001A5BC, symSize: 0x1C }
  - { offset: 0x4BE4F, size: 0x8, addend: 0x0, symName: __ZNSt4pairIPSt18_Rb_tree_node_baseS1_EC1IRS1_S1_EEOT_OT0_, symObjAddr: 0x275C, symBinAddr: 0x10001A570, symSize: 0x4C }
  - { offset: 0x4BEDD, size: 0x8, addend: 0x0, symName: __ZNSt8_Rb_treeIiSt4pairIKiP4CardESt10_Select1stIS4_ESt4lessIiESaIS4_EE8_S_rightEPSt18_Rb_tree_node_base, symObjAddr: 0x2744, symBinAddr: 0x10001A558, symSize: 0x18 }
  - { offset: 0x4BF0B, size: 0x8, addend: 0x0, symName: __ZNSt17_Rb_tree_iteratorISt4pairIKiP4CardEEmmEv, symObjAddr: 0x2714, symBinAddr: 0x10001A528, symSize: 0x30 }
  - { offset: 0x4BF7D, size: 0x8, addend: 0x0, symName: __ZNSt4pairIPSt18_Rb_tree_node_baseS1_EC1IRS1_S4_EEOT_OT0_, symObjAddr: 0x26C8, symBinAddr: 0x10001A4DC, symSize: 0x4C }
  - { offset: 0x4C00F, size: 0x8, addend: 0x0, symName: __ZNSt8_Rb_treeIiSt4pairIKiP4CardESt10_Select1stIS4_ESt4lessIiESaIS4_EE24_M_get_insert_unique_posERS1_, symObjAddr: 0x2570, symBinAddr: 0x10001A384, symSize: 0x158 }
  - { offset: 0x4C0DB, size: 0x8, addend: 0x0, symName: __ZNSt4pairIPSt18_Rb_tree_node_baseS1_EC1IS1_RS1_EEOT_OT0_, symObjAddr: 0x2524, symBinAddr: 0x10001A338, symSize: 0x4C }
  - { offset: 0x4C169, size: 0x8, addend: 0x0, symName: __ZNSt8_Rb_treeIiSt4pairIKiP4CardESt10_Select1stIS4_ESt4lessIiESaIS4_EE6_S_keyEPSt18_Rb_tree_node_base, symObjAddr: 0x2508, symBinAddr: 0x10001A31C, symSize: 0x1C }
  - { offset: 0x4C197, size: 0x8, addend: 0x0, symName: __ZNKSt8_Rb_treeIiSt4pairIKiP4CardESt10_Select1stIS4_ESt4lessIiESaIS4_EE4sizeEv, symObjAddr: 0x24F0, symBinAddr: 0x10001A304, symSize: 0x18 }
  - { offset: 0x4C1C1, size: 0x8, addend: 0x0, symName: __ZNSt8_Rb_treeIiSt4pairIKiP4CardESt10_Select1stIS4_ESt4lessIiESaIS4_EE14_M_create_nodeIJRKSt21piecewise_construct_tSt5tupleIJRS1_EESF_IJEEEEEPSt13_Rb_tree_nodeIS4_EDpOT_, symObjAddr: 0x2484, symBinAddr: 0x10001A298, symSize: 0x6C }
  - { offset: 0x4C2CA, size: 0x8, addend: 0x0, symName: __ZNSt10_Head_baseILm0ERKiLb0EEC2ES1_, symObjAddr: 0x2460, symBinAddr: 0x10001A274, symSize: 0x24 }
  - { offset: 0x4C2F9, size: 0x8, addend: 0x0, symName: __ZNKSt8_Rb_treeIiSt4pairIKiP4CardESt10_Select1stIS4_ESt4lessIiESaIS4_EE8_M_beginEv, symObjAddr: 0x2448, symBinAddr: 0x10001A25C, symSize: 0x18 }
  - { offset: 0x4C323, size: 0x8, addend: 0x0, symName: __ZNKSt8_Rb_treeIiSt4pairIKiP4CardESt10_Select1stIS4_ESt4lessIiESaIS4_EE14_M_lower_boundEPSt18_Rb_tree_node_baseSC_RS1_, symObjAddr: 0x23B8, symBinAddr: 0x10001A1CC, symSize: 0x90 }
  - { offset: 0x4C384, size: 0x8, addend: 0x0, symName: __ZN9__gnu_cxx16__aligned_membufISt4pairIKiP4CardEE7_M_addrEv, symObjAddr: 0x23A4, symBinAddr: 0x10001A1B8, symSize: 0x14 }
  - { offset: 0x4C3AE, size: 0x8, addend: 0x0, symName: __ZNSt8_Rb_treeIiSt4pairIKiP4CardESt10_Select1stIS4_ESt4lessIiESaIS4_EE12_M_rightmostEv, symObjAddr: 0x238C, symBinAddr: 0x10001A1A0, symSize: 0x18 }
  - { offset: 0x4C3D8, size: 0x8, addend: 0x0, symName: __ZNSt8_Rb_treeIiSt4pairIKiP4CardESt10_Select1stIS4_ESt4lessIiESaIS4_EE11_M_leftmostEv, symObjAddr: 0x2374, symBinAddr: 0x10001A188, symSize: 0x18 }
  - { offset: 0x4C402, size: 0x8, addend: 0x0, symName: __ZNSt8_Rb_treeIiSt4pairIKiP4CardESt10_Select1stIS4_ESt4lessIiESaIS4_EE7_M_copyILb0ENSA_11_Alloc_nodeEEEPSt18_Rb_tree_node_basePSt13_Rb_tree_nodeIS4_ESE_RT0_, symObjAddr: 0x221C, symBinAddr: 0x10001A030, symSize: 0x158 }
  - { offset: 0x4C4CE, size: 0x8, addend: 0x0, symName: __ZNSt8_Rb_treeIiSt4pairIKiP4CardESt10_Select1stIS4_ESt4lessIiESaIS4_EE11_M_put_nodeEPSt13_Rb_tree_nodeIS4_E, symObjAddr: 0x219C, symBinAddr: 0x100019FB0, symSize: 0x80 }
  - { offset: 0x4C58E, size: 0x8, addend: 0x0, symName: __ZNSt8_Rb_treeIiSt4pairIKiP4CardESt10_Select1stIS4_ESt4lessIiESaIS4_EE15_M_destroy_nodeEPSt13_Rb_tree_nodeIS4_E, symObjAddr: 0x2150, symBinAddr: 0x100019F64, symSize: 0x4C }
  - { offset: 0x4C5F2, size: 0x8, addend: 0x0, symName: __ZNSt6vectorIiSaIiEE11_S_relocateEPiS2_S2_RS0_, symObjAddr: 0x211C, symBinAddr: 0x100019F30, symSize: 0x34 }
  - { offset: 0x4C68B, size: 0x8, addend: 0x0, symName: __ZNSt6vectorIiSaIiEE12_Guard_allocD1Ev, symObjAddr: 0x20D0, symBinAddr: 0x100019EE4, symSize: 0x4C }
  - { offset: 0x4C6F5, size: 0x8, addend: 0x0, symName: __ZNSt6vectorIiSaIiEE12_Guard_allocC1EPimRSt12_Vector_baseIiS0_E, symObjAddr: 0x208C, symBinAddr: 0x100019EA0, symSize: 0x44 }
  - { offset: 0x4C736, size: 0x8, addend: 0x0, symName: __ZNSt12_Vector_baseIiSaIiEE11_M_allocateEm, symObjAddr: 0x1FC8, symBinAddr: 0x100019DDC, symSize: 0xC4 }
  - { offset: 0x4C7F6, size: 0x8, addend: 0x0, symName: __ZSt12construct_atIiJRKiEQaant20is_unbounded_array_vIT_ErqXgsnwcvPvLi0E_S2_pispcl7declvalIT0_EEEEEPS2_S5_DpOS4_, symObjAddr: 0x1F58, symBinAddr: 0x100019D6C, symSize: 0x70 }
  - { offset: 0x4C89D, size: 0x8, addend: 0x0, symName: __ZSt8_DestroyIPiEvT_S1_, symObjAddr: 0x1EFC, symBinAddr: 0x100019D10, symSize: 0x5C }
  - { offset: 0x4C951, size: 0x8, addend: 0x0, symName: __ZNSt8_Rb_treeIiSt4pairIKiP4CardESt10_Select1stIS4_ESt4lessIiESaIS4_EE10_Auto_node9_M_insertES0_IPSt18_Rb_tree_node_baseSD_E, symObjAddr: 0x1EB0, symBinAddr: 0x100019CC4, symSize: 0x4C }
  - { offset: 0x4C99D, size: 0x8, addend: 0x0, symName: __ZNKSt8_Rb_treeIiSt4pairIKiP4CardESt10_Select1stIS4_ESt4lessIiESaIS4_EE10_Auto_node6_M_keyEv, symObjAddr: 0x1E90, symBinAddr: 0x100019CA4, symSize: 0x20 }
  - { offset: 0x4C9C7, size: 0x8, addend: 0x0, symName: __ZNSt8_Rb_treeIiSt4pairIKiP4CardESt10_Select1stIS4_ESt4lessIiESaIS4_EE29_M_get_insert_hint_unique_posESt23_Rb_tree_const_iteratorIS4_ERS1_, symObjAddr: 0x1B70, symBinAddr: 0x100019984, symSize: 0x320 }
  - { offset: 0x4CA7A, size: 0x8, addend: 0x0, symName: __ZNSt8_Rb_treeIiSt4pairIKiP4CardESt10_Select1stIS4_ESt4lessIiESaIS4_EE10_Auto_nodeD1Ev, symObjAddr: 0x1B2C, symBinAddr: 0x100019940, symSize: 0x44 }
  - { offset: 0x4CAF7, size: 0x8, addend: 0x0, symName: __ZNSt8_Rb_treeIiSt4pairIKiP4CardESt10_Select1stIS4_ESt4lessIiESaIS4_EE10_Auto_nodeC1IJRKSt21piecewise_construct_tSt5tupleIJRS1_EESG_IJEEEEERSA_DpOT_, symObjAddr: 0x1AB4, symBinAddr: 0x1000198C8, symSize: 0x78 }
  - { offset: 0x4CC62, size: 0x8, addend: 0x0, symName: __ZNSt11_Tuple_implILm0EJRKiEEC2ES1_, symObjAddr: 0x1A8C, symBinAddr: 0x1000198A0, symSize: 0x28 }
  - { offset: 0x4CC91, size: 0x8, addend: 0x0, symName: __ZNKSt8_Rb_treeIiSt4pairIKiP4CardESt10_Select1stIS4_ESt4lessIiESaIS4_EE8key_compEv, symObjAddr: 0x1A74, symBinAddr: 0x100019888, symSize: 0x18 }
  - { offset: 0x4CCBB, size: 0x8, addend: 0x0, symName: __ZNSt8_Rb_treeIiSt4pairIKiP4CardESt10_Select1stIS4_ESt4lessIiESaIS4_EE11lower_boundERS1_, symObjAddr: 0x1A1C, symBinAddr: 0x100019830, symSize: 0x58 }
  - { offset: 0x4CCF6, size: 0x8, addend: 0x0, symName: __ZN9__gnu_cxx16__aligned_membufISt4pairIKiP4CardEE6_M_ptrEv, symObjAddr: 0x1A00, symBinAddr: 0x100019814, symSize: 0x1C }
  - { offset: 0x4CD20, size: 0x8, addend: 0x0, symName: __ZNKSt8_Rb_treeIiSt4pairIKiP4CardESt10_Select1stIS4_ESt4lessIiESaIS4_EE6_M_endEv, symObjAddr: 0x19E0, symBinAddr: 0x1000197F4, symSize: 0x20 }
  - { offset: 0x4CD72, size: 0x8, addend: 0x0, symName: __ZNSt17_Rb_tree_iteratorISt4pairIKiP4CardEEC1EPSt18_Rb_tree_node_base, symObjAddr: 0x19BC, symBinAddr: 0x1000197D0, symSize: 0x24 }
  - { offset: 0x4CDA1, size: 0x8, addend: 0x0, symName: __ZNSt8_Rb_treeIiSt4pairIKiP4CardESt10_Select1stIS4_ESt4lessIiESaIS4_EE7_M_copyILb0ENSA_11_Alloc_nodeEEEPSt18_Rb_tree_node_baseRKSA_RT0_, symObjAddr: 0x1928, symBinAddr: 0x10001973C, symSize: 0x94 }
  - { offset: 0x4CE39, size: 0x8, addend: 0x0, symName: __ZNSt8_Rb_treeIiSt4pairIKiP4CardESt10_Select1stIS4_ESt4lessIiESaIS4_EE11_Alloc_nodeC1ERSA_, symObjAddr: 0x1904, symBinAddr: 0x100019718, symSize: 0x24 }
  - { offset: 0x4CE8F, size: 0x8, addend: 0x0, symName: __ZNSt20_Rb_tree_key_compareISt4lessIiEEC2ERKS1_, symObjAddr: 0x18EC, symBinAddr: 0x100019700, symSize: 0x18 }
  - { offset: 0x4CF00, size: 0x8, addend: 0x0, symName: __ZNSt8_Rb_treeIiSt4pairIKiP4CardESt10_Select1stIS4_ESt4lessIiESaIS4_EE21_M_get_Node_allocatorEv, symObjAddr: 0x18D8, symBinAddr: 0x1000196EC, symSize: 0x14 }
  - { offset: 0x4CF2A, size: 0x8, addend: 0x0, symName: __ZNSt8_Rb_treeIiSt4pairIKiP4CardESt10_Select1stIS4_ESt4lessIiESaIS4_EE12_M_move_dataERSA_St17integral_constantIbLb1EE, symObjAddr: 0x189C, symBinAddr: 0x1000196B0, symSize: 0x3C }
  - { offset: 0x4CF6E, size: 0x8, addend: 0x0, symName: __ZNSt8_Rb_treeIiSt4pairIKiP4CardESt10_Select1stIS4_ESt4lessIiESaIS4_EE5clearEv, symObjAddr: 0x1864, symBinAddr: 0x100019678, symSize: 0x38 }
  - { offset: 0x4CF98, size: 0x8, addend: 0x0, symName: __ZNSt13_Rb_tree_nodeISt4pairIKiP4CardEE11_M_node_ptrEv, symObjAddr: 0x1850, symBinAddr: 0x100019664, symSize: 0x14 }
  - { offset: 0x4CFC2, size: 0x8, addend: 0x0, symName: __ZNSt8_Rb_treeIiSt4pairIKiP4CardESt10_Select1stIS4_ESt4lessIiESaIS4_EE12_M_drop_nodeEPSt13_Rb_tree_nodeIS4_E, symObjAddr: 0x181C, symBinAddr: 0x100019630, symSize: 0x34 }
  - { offset: 0x4CFF9, size: 0x8, addend: 0x0, symName: __ZNSt8_Rb_treeIiSt4pairIKiP4CardESt10_Select1stIS4_ESt4lessIiESaIS4_EE7_S_leftEPSt13_Rb_tree_nodeIS4_E, symObjAddr: 0x17E4, symBinAddr: 0x1000195F8, symSize: 0x38 }
  - { offset: 0x4D023, size: 0x8, addend: 0x0, symName: __ZNSt8_Rb_treeIiSt4pairIKiP4CardESt10_Select1stIS4_ESt4lessIiESaIS4_EE8_S_rightEPSt13_Rb_tree_nodeIS4_E, symObjAddr: 0x17AC, symBinAddr: 0x1000195C0, symSize: 0x38 }
  - { offset: 0x4D067, size: 0x8, addend: 0x0, symName: __ZNSt6vectorIiSaIiEE17_M_realloc_appendIJRKiEEEvDpOT_, symObjAddr: 0x15FC, symBinAddr: 0x100019410, symSize: 0x1B0 }
  - { offset: 0x4D2B8, size: 0x8, addend: 0x0, symName: __ZNSt6vectorIiSaIiEE5beginEv, symObjAddr: 0x15D0, symBinAddr: 0x1000193E4, symSize: 0x2C }
  - { offset: 0x4D30C, size: 0x8, addend: 0x0, symName: __ZNSt6vectorIiSaIiEE3endEv, symObjAddr: 0x15A0, symBinAddr: 0x1000193B4, symSize: 0x30 }
  - { offset: 0x4D398, size: 0x8, addend: 0x0, symName: __ZNSt6vectorIiSaIiEE11_S_max_sizeERKS0_, symObjAddr: 0x156C, symBinAddr: 0x100019380, symSize: 0x34 }
  - { offset: 0x4D3E8, size: 0x8, addend: 0x0, symName: __ZNKSt12_Vector_baseIiSaIiEE19_M_get_Tp_allocatorEv, symObjAddr: 0x1558, symBinAddr: 0x10001936C, symSize: 0x14 }
  - { offset: 0x4D412, size: 0x8, addend: 0x0, symName: __ZNKSt6vectorIiSaIiEE8max_sizeEv, symObjAddr: 0x1538, symBinAddr: 0x10001934C, symSize: 0x20 }
  - { offset: 0x4D43C, size: 0x8, addend: 0x0, symName: __ZNKSt6vectorIiSaIiEE12_M_check_lenEmPKc, symObjAddr: 0x1468, symBinAddr: 0x10001927C, symSize: 0xD0 }
  - { offset: 0x4D51C, size: 0x8, addend: 0x0, symName: __ZNSt12_Vector_baseIiSaIiEE19_M_get_Tp_allocatorEv, symObjAddr: 0x1454, symBinAddr: 0x100019268, symSize: 0x14 }
  - { offset: 0x4D546, size: 0x8, addend: 0x0, symName: __ZNSt12_Vector_baseIiSaIiEE13_M_deallocateEPim, symObjAddr: 0x13C8, symBinAddr: 0x1000191DC, symSize: 0x8C }
  - { offset: 0x4D633, size: 0x8, addend: 0x0, symName: __ZNSt8_Rb_treeIiSt4pairIKiP4CardESt10_Select1stIS4_ESt4lessIiESaIS4_EE22_M_emplace_hint_uniqueIJRKSt21piecewise_construct_tSt5tupleIJRS1_EESF_IJEEEEESt17_Rb_tree_iteratorIS4_ESt23_Rb_tree_const_iteratorIS4_EDpOT_, symObjAddr: 0x12F0, symBinAddr: 0x100019104, symSize: 0xD8 }
  - { offset: 0x4D764, size: 0x8, addend: 0x0, symName: __ZNSt23_Rb_tree_const_iteratorISt4pairIKiP4CardEEC1ERKSt17_Rb_tree_iteratorIS4_E, symObjAddr: 0x12C8, symBinAddr: 0x1000190DC, symSize: 0x28 }
  - { offset: 0x4D7BB, size: 0x8, addend: 0x0, symName: __ZNSt5tupleIJRKiEEC1IvEES1_Qcl15__constructibleIDpRKT_EE, symObjAddr: 0x12A0, symBinAddr: 0x1000190B4, symSize: 0x28 }
  - { offset: 0x4D7EA, size: 0x8, addend: 0x0, symName: __ZNKSt4lessIiEclERKiS2_, symObjAddr: 0x126C, symBinAddr: 0x100019080, symSize: 0x34 }
  - { offset: 0x4D836, size: 0x8, addend: 0x0, symName: __ZNKSt3mapIiP4CardSt4lessIiESaISt4pairIKiS1_EEE8key_compEv, symObjAddr: 0x1240, symBinAddr: 0x100019054, symSize: 0x2C }
  - { offset: 0x4D860, size: 0x8, addend: 0x0, symName: __ZNSt3mapIiP4CardSt4lessIiESaISt4pairIKiS1_EEE11lower_boundERS5_, symObjAddr: 0x121C, symBinAddr: 0x100019030, symSize: 0x24 }
  - { offset: 0x4D89B, size: 0x8, addend: 0x0, symName: __ZNSt13_Rb_tree_nodeISt4pairIKiP4CardEE9_M_valptrEv, symObjAddr: 0x11FC, symBinAddr: 0x100019010, symSize: 0x20 }
  - { offset: 0x4D8C5, size: 0x8, addend: 0x0, symName: __ZNSt8_Rb_treeIiSt4pairIKiP4CardESt10_Select1stIS4_ESt4lessIiESaIS4_EE3endEv, symObjAddr: 0x11D0, symBinAddr: 0x100018FE4, symSize: 0x2C }
  - { offset: 0x4D8EF, size: 0x8, addend: 0x0, symName: __ZNSt8_Rb_treeIiSt4pairIKiP4CardESt10_Select1stIS4_ESt4lessIiESaIS4_EE5beginEv, symObjAddr: 0x11A8, symBinAddr: 0x100018FBC, symSize: 0x28 }
  - { offset: 0x4D919, size: 0x8, addend: 0x0, symName: __ZNSt8_Rb_treeIiSt4pairIKiP4CardESt10_Select1stIS4_ESt4lessIiESaIS4_EE7_M_copyERKSA_, symObjAddr: 0x1170, symBinAddr: 0x100018F84, symSize: 0x38 }
  - { offset: 0x4D965, size: 0x8, addend: 0x0, symName: __ZNSt8_Rb_treeIiSt4pairIKiP4CardESt10_Select1stIS4_ESt4lessIiESaIS4_EE7_M_rootEv, symObjAddr: 0x1158, symBinAddr: 0x100018F6C, symSize: 0x18 }
  - { offset: 0x4D98F, size: 0x8, addend: 0x0, symName: __ZNKSt8_Rb_treeIiSt4pairIKiP4CardESt10_Select1stIS4_ESt4lessIiESaIS4_EE7_M_rootEv, symObjAddr: 0x1140, symBinAddr: 0x100018F54, symSize: 0x18 }
  - { offset: 0x4D9E1, size: 0x8, addend: 0x0, symName: __ZNSt8_Rb_treeIiSt4pairIKiP4CardESt10_Select1stIS4_ESt4lessIiESaIS4_EE13_Rb_tree_implIS8_Lb1EEC1ERKSC_, symObjAddr: 0x10A8, symBinAddr: 0x100018EBC, symSize: 0x98 }
  - { offset: 0x4DB2A, size: 0x8, addend: 0x0, symName: __ZNKSt8_Rb_treeIiSt4pairIKiP4CardESt10_Select1stIS4_ESt4lessIiESaIS4_EE5emptyEv, symObjAddr: 0x1084, symBinAddr: 0x100018E98, symSize: 0x24 }
  - { offset: 0x4DB54, size: 0x8, addend: 0x0, symName: __ZNSt8_Rb_treeIiSt4pairIKiP4CardESt10_Select1stIS4_ESt4lessIiESaIS4_EE14_M_move_assignERSA_St17integral_constantIbLb1EE, symObjAddr: 0xFF8, symBinAddr: 0x100018E0C, symSize: 0x8C }
  - { offset: 0x4DBC5, size: 0x8, addend: 0x0, symName: __ZNKSt8_Rb_treeIiSt4pairIKiP4CardESt10_Select1stIS4_ESt4lessIiESaIS4_EE13_M_begin_nodeEv, symObjAddr: 0xFBC, symBinAddr: 0x100018DD0, symSize: 0x3C }
  - { offset: 0x4DC00, size: 0x8, addend: 0x0, symName: __ZNSt8_Rb_treeIiSt4pairIKiP4CardESt10_Select1stIS4_ESt4lessIiESaIS4_EE8_M_eraseEPSt13_Rb_tree_nodeIS4_E, symObjAddr: 0xF58, symBinAddr: 0x100018D6C, symSize: 0x64 }
  - { offset: 0x4DC79, size: 0x8, addend: 0x0, symName: __ZNSt20_Rb_tree_key_compareISt4lessIiEEC2Ev, symObjAddr: 0xF44, symBinAddr: 0x100018D58, symSize: 0x14 }
  - { offset: 0x4DCD9, size: 0x8, addend: 0x0, symName: __ZNSt6vectorIiSaIiEEixEm, symObjAddr: 0xEC0, symBinAddr: 0x100018CD4, symSize: 0x84 }
  - { offset: 0x4DD31, size: 0x8, addend: 0x0, symName: __ZNSt6vectorIiSaIiEE9push_backERKi, symObjAddr: 0xE30, symBinAddr: 0x100018C44, symSize: 0x90 }
  - { offset: 0x4DDE0, size: 0x8, addend: 0x0, symName: __ZNSt6vectorIiSaIiEED1Ev, symObjAddr: 0xDD4, symBinAddr: 0x100018BE8, symSize: 0x5C }
  - { offset: 0x4DE56, size: 0x8, addend: 0x0, symName: __ZNSt12_Vector_baseIiSaIiEED2Ev, symObjAddr: 0xD84, symBinAddr: 0x100018B98, symSize: 0x50 }
  - { offset: 0x4DEB5, size: 0x8, addend: 0x0, symName: __ZNSt3mapIiP4CardSt4lessIiESaISt4pairIKiS1_EEEixERS5_, symObjAddr: 0xC98, symBinAddr: 0x100018AAC, symSize: 0xEC }
  - { offset: 0x4DF01, size: 0x8, addend: 0x0, symName: __ZNKSt17_Rb_tree_iteratorISt4pairIKiP4CardEEdeEv, symObjAddr: 0xC78, symBinAddr: 0x100018A8C, symSize: 0x20 }
  - { offset: 0x4DF2B, size: 0x8, addend: 0x0, symName: __ZNSt17_Rb_tree_iteratorISt4pairIKiP4CardEEppEv, symObjAddr: 0xC48, symBinAddr: 0x100018A5C, symSize: 0x30 }
  - { offset: 0x4DF57, size: 0x8, addend: 0x0, symName: __ZSteqRKSt17_Rb_tree_iteratorISt4pairIKiP4CardEES7_, symObjAddr: 0xC18, symBinAddr: 0x100018A2C, symSize: 0x30 }
  - { offset: 0x4DF96, size: 0x8, addend: 0x0, symName: __ZNSt3mapIiP4CardSt4lessIiESaISt4pairIKiS1_EEE3endEv, symObjAddr: 0xBFC, symBinAddr: 0x100018A10, symSize: 0x1C }
  - { offset: 0x4DFC0, size: 0x8, addend: 0x0, symName: __ZNSt3mapIiP4CardSt4lessIiESaISt4pairIKiS1_EEE5beginEv, symObjAddr: 0xBE0, symBinAddr: 0x1000189F4, symSize: 0x1C }
  - { offset: 0x4E012, size: 0x8, addend: 0x0, symName: __ZNSt8_Rb_treeIiSt4pairIKiP4CardESt10_Select1stIS4_ESt4lessIiESaIS4_EEC1ERKSA_, symObjAddr: 0xB5C, symBinAddr: 0x100018970, symSize: 0x84 }
  - { offset: 0x4E041, size: 0x8, addend: 0x0, symName: __ZNKSt3mapIiP4CardSt4lessIiESaISt4pairIKiS1_EEE5emptyEv, symObjAddr: 0xB40, symBinAddr: 0x100018954, symSize: 0x1C }
  - { offset: 0x4E06B, size: 0x8, addend: 0x0, symName: __ZNSt8_Rb_treeIiSt4pairIKiP4CardESt10_Select1stIS4_ESt4lessIiESaIS4_EEaSEOSA_, symObjAddr: 0xB10, symBinAddr: 0x100018924, symSize: 0x30 }
  - { offset: 0x4E0C0, size: 0x8, addend: 0x0, symName: __ZNSt8_Rb_treeIiSt4pairIKiP4CardESt10_Select1stIS4_ESt4lessIiESaIS4_EED1Ev, symObjAddr: 0xADC, symBinAddr: 0x1000188F0, symSize: 0x34 }
  - { offset: 0x4E116, size: 0x8, addend: 0x0, symName: __ZNSt8_Rb_treeIiSt4pairIKiP4CardESt10_Select1stIS4_ESt4lessIiESaIS4_EE13_Rb_tree_implIS8_Lb1EEC1Ev, symObjAddr: 0xA98, symBinAddr: 0x1000188AC, symSize: 0x44 }
  - { offset: 0x4E20D, size: 0x8, addend: 0x0, symName: __ZN3CPU12CPUAlgorithmER11DiscardPileR8DrawDeck, symObjAddr: 0x930, symBinAddr: 0x10001877C, symSize: 0x130 }
  - { offset: 0x4E28B, size: 0x8, addend: 0x0, symName: __ZN3CPU12selectRandomEv, symObjAddr: 0x834, symBinAddr: 0x100018680, symSize: 0xFC }
  - { offset: 0x4E348, size: 0x8, addend: 0x0, symName: __ZN3CPU12selectRandomESt3mapIiP4CardSt4lessIiESaISt4pairIKiS2_EEE, symObjAddr: 0x738, symBinAddr: 0x100018584, symSize: 0xFC }
  - { offset: 0x4E40B, size: 0x8, addend: 0x0, symName: __ZNKSt6vectorIiSaIiEE4sizeEv, symObjAddr: 0x6F8, symBinAddr: 0x100018544, symSize: 0x40 }
  - { offset: 0x4E463, size: 0x8, addend: 0x0, symName: __ZNSt12_Vector_baseIiSaIiEE12_Vector_implD1Ev, symObjAddr: 0x6D8, symBinAddr: 0x100018524, symSize: 0x20 }
  - { offset: 0x4E4AC, size: 0x8, addend: 0x0, symName: __ZN3CPU16filterForSpecialEv, symObjAddr: 0x5EC, symBinAddr: 0x100018438, symSize: 0xEC }
  - { offset: 0x4E576, size: 0x8, addend: 0x0, symName: __ZNSt10__pair_getILm1EE16__const_move_getIKiP4CardEEOKT0_OKSt4pairIT_S5_E, symObjAddr: 0x5CC, symBinAddr: 0x100018418, symSize: 0x20 }
  - { offset: 0x4E5DC, size: 0x8, addend: 0x0, symName: __ZSt3getILm1EKiP4CardEOKNSt13tuple_elementIXT_ESt4pairIT0_T1_EE4typeEOKS7_, symObjAddr: 0x5A8, symBinAddr: 0x1000183F4, symSize: 0x24 }
  - { offset: 0x4E670, size: 0x8, addend: 0x0, symName: __ZNSt10__pair_getILm0EE16__const_move_getIKiP4CardEEOKT_OKSt4pairIS5_T0_E, symObjAddr: 0x58C, symBinAddr: 0x1000183D8, symSize: 0x1C }
  - { offset: 0x4E6FA, size: 0x8, addend: 0x0, symName: __ZSt3getILm0EKiP4CardEOKNSt13tuple_elementIXT_ESt4pairIT0_T1_EE4typeEOKS7_, symObjAddr: 0x568, symBinAddr: 0x1000183B4, symSize: 0x24 }
  - { offset: 0x4E768, size: 0x8, addend: 0x0, symName: __ZN5Human5printEv, symObjAddr: 0x544, symBinAddr: 0x100018390, symSize: 0x24 }
  - { offset: 0x4E792, size: 0x8, addend: 0x0, symName: __ZN5Human13printPlayableEv, symObjAddr: 0x4E0, symBinAddr: 0x10001832C, symSize: 0x64 }
  - { offset: 0x4E7DB, size: 0x8, addend: 0x0, symName: __ZNSt3mapIiP4CardSt4lessIiESaISt4pairIKiS1_EEEC1ERKS8_, symObjAddr: 0x4B8, symBinAddr: 0x100018304, symSize: 0x28 }
  - { offset: 0x4E80A, size: 0x8, addend: 0x0, symName: __ZNK5Human7ishumanEv, symObjAddr: 0x4A4, symBinAddr: 0x1000182F0, symSize: 0x14 }
  - { offset: 0x4E834, size: 0x8, addend: 0x0, symName: __ZNK6Player7ishumanEv, symObjAddr: 0x490, symBinAddr: 0x1000182DC, symSize: 0x14 }
  - { offset: 0x4E85E, size: 0x8, addend: 0x0, symName: __ZN6Player6hasWonEv, symObjAddr: 0x470, symBinAddr: 0x1000182BC, symSize: 0x20 }
  - { offset: 0x4E888, size: 0x8, addend: 0x0, symName: __ZN6Player16hasPlayableCardsEv, symObjAddr: 0x448, symBinAddr: 0x100018294, symSize: 0x28 }
  - { offset: 0x4E8B2, size: 0x8, addend: 0x0, symName: __ZN6Player20refreshPlayableCardsER11DiscardPile, symObjAddr: 0x3FC, symBinAddr: 0x100018248, symSize: 0x4C }
  - { offset: 0x4E8EC, size: 0x8, addend: 0x0, symName: __ZNSt3mapIiP4CardSt4lessIiESaISt4pairIKiS1_EEEaSEOS8_, symObjAddr: 0x3D4, symBinAddr: 0x100018220, symSize: 0x28 }
  - { offset: 0x4E91F, size: 0x8, addend: 0x0, symName: __ZN6Player11discardCardEmR11DiscardPile, symObjAddr: 0x398, symBinAddr: 0x1000181E4, symSize: 0x3C }
  - { offset: 0x4E979, size: 0x8, addend: 0x0, symName: __ZN6Player10removeCardEm, symObjAddr: 0x370, symBinAddr: 0x1000181BC, symSize: 0x28 }
  - { offset: 0x4E9B3, size: 0x8, addend: 0x0, symName: __ZN6Player14drawSevenCardsER8DrawDeck, symObjAddr: 0x324, symBinAddr: 0x100018170, symSize: 0x4C }
  - { offset: 0x4EA10, size: 0x8, addend: 0x0, symName: __ZN6Player8drawCardER8DrawDeck, symObjAddr: 0x2EC, symBinAddr: 0x100018138, symSize: 0x38 }
  - { offset: 0x4EA74, size: 0x8, addend: 0x0, symName: __ZN6PlayerC1Ev, symObjAddr: 0x2AC, symBinAddr: 0x1000180F8, symSize: 0x40 }
  - { offset: 0x4EA9E, size: 0x8, addend: 0x0, symName: __ZN6PlayerC2Ev, symObjAddr: 0x26C, symBinAddr: 0x1000180B8, symSize: 0x40 }
  - { offset: 0x4EADE, size: 0x8, addend: 0x0, symName: __ZNSt3mapIiP4CardSt4lessIiESaISt4pairIKiS1_EEED1Ev, symObjAddr: 0x24C, symBinAddr: 0x100018098, symSize: 0x20 }
  - { offset: 0x4EB1E, size: 0x8, addend: 0x0, symName: __ZNSt3mapIiP4CardSt4lessIiESaISt4pairIKiS1_EEEC1Ev, symObjAddr: 0x22C, symBinAddr: 0x100018078, symSize: 0x20 }
  - { offset: 0x4EB5E, size: 0x8, addend: 0x0, symName: __ZNSt8_Rb_treeIiSt4pairIKiP4CardESt10_Select1stIS4_ESt4lessIiESaIS4_EEC1Ev, symObjAddr: 0x20C, symBinAddr: 0x100018058, symSize: 0x20 }
  - { offset: 0x4EBA2, size: 0x8, addend: 0x0, symName: __ZNSt8_Rb_treeIiSt4pairIKiP4CardESt10_Select1stIS4_ESt4lessIiESaIS4_EE13_Rb_tree_implIS8_Lb1EED1Ev, symObjAddr: 0x1EC, symBinAddr: 0x100018038, symSize: 0x20 }
  - { offset: 0x4EBEC, size: 0x8, addend: 0x0, symName: __ZNSt15_Rb_tree_header8_M_resetEv, symObjAddr: 0x1B0, symBinAddr: 0x100017FFC, symSize: 0x3C }
  - { offset: 0x4EC16, size: 0x8, addend: 0x0, symName: __ZNSt15_Rb_tree_header12_M_move_dataERS_, symObjAddr: 0x12C, symBinAddr: 0x100017F78, symSize: 0x84 }
  - { offset: 0x4EC6A, size: 0x8, addend: 0x0, symName: __ZNSt15_Rb_tree_headerC2Ev, symObjAddr: 0x104, symBinAddr: 0x100017F50, symSize: 0x28 }
  - { offset: 0x4EC90, size: 0x8, addend: 0x0, symName: __ZNKSt18_Rb_tree_node_base11_M_base_ptrEv, symObjAddr: 0xF0, symBinAddr: 0x100017F3C, symSize: 0x14 }
  - { offset: 0x4ECB6, size: 0x8, addend: 0x0, symName: __ZNSt18_Rb_tree_node_base10_S_maximumEPS_, symObjAddr: 0xBC, symBinAddr: 0x100017F08, symSize: 0x34 }
  - { offset: 0x4ECDF, size: 0x8, addend: 0x0, symName: __ZNSt18_Rb_tree_node_base10_S_minimumEPS_, symObjAddr: 0x88, symBinAddr: 0x100017ED4, symSize: 0x34 }
  - { offset: 0x4ED0C, size: 0x8, addend: 0x0, symName: __ZN4Card9isspecialEv, symObjAddr: 0x70, symBinAddr: 0x100017EBC, symSize: 0x18 }
  - { offset: 0x560B5, size: 0x8, addend: 0x0, symName: __ZStL8__ioinit, symObjAddr: 0x474B0, symBinAddr: 0x100038001, symSize: 0x0 }
  - { offset: 0x56399, size: 0x8, addend: 0x0, symName: __ZNSt15__new_allocatorISt10_List_nodeIP4CardEE8allocateEmPKv, symObjAddr: 0x2694, symBinAddr: 0x10001C108, symSize: 0x90 }
  - { offset: 0x5645C, size: 0x8, addend: 0x0, symName: __ZNSt15__new_allocatorISt10_List_nodeIP4CardEE10deallocateEPS3_m, symObjAddr: 0x24F8, symBinAddr: 0x10001C0CC, symSize: 0x3C }
  - { offset: 0x5651B, size: 0x8, addend: 0x0, symName: __ZNSt15__allocated_ptrISaISt10_List_nodeIP4CardEEEC2EOS5_, symObjAddr: 0x246C, symBinAddr: 0x10001C08C, symSize: 0x40 }
  - { offset: 0x565A2, size: 0x8, addend: 0x0, symName: __ZNSt15__allocated_ptrISaISt10_List_nodeIP4CardEEEC1ERS4_PS3_, symObjAddr: 0x2430, symBinAddr: 0x10001C050, symSize: 0x3C }
  - { offset: 0x5664D, size: 0x8, addend: 0x0, symName: __ZSt10__exchangeIPSt10_List_nodeIP4CardEDnET_RS5_OT0_, symObjAddr: 0x2170, symBinAddr: 0x10001C014, symSize: 0x3C }
  - { offset: 0x566CF, size: 0x8, addend: 0x0, symName: __ZNKSt15__allocated_ptrISaISt10_List_nodeIP4CardEEE3getEv, symObjAddr: 0x20D0, symBinAddr: 0x10001BFE4, symSize: 0x30 }
  - { offset: 0x56765, size: 0x8, addend: 0x0, symName: __ZNKSt15__allocated_ptrISaISt10_List_nodeIP4CardEEEcvbEv, symObjAddr: 0x20AC, symBinAddr: 0x10001BFC0, symSize: 0x24 }
  - { offset: 0x567B6, size: 0x8, addend: 0x0, symName: __ZNSt15__allocated_objISaISt10_List_nodeIP4CardEEEC1EOSt15__allocated_ptrIS4_E, symObjAddr: 0x203C, symBinAddr: 0x10001BF50, symSize: 0x70 }
  - { offset: 0x56822, size: 0x8, addend: 0x0, symName: __ZNSt15__allocated_ptrISaISt10_List_nodeIP4CardEEED1Ev, symObjAddr: 0x1FAC, symBinAddr: 0x10001BEC0, symSize: 0x90 }
  - { offset: 0x568D0, size: 0x8, addend: 0x0, symName: __ZNSt15__allocated_ptrISaISt10_List_nodeIP4CardEEED2Ev, symObjAddr: 0x1F1C, symBinAddr: 0x10001BE30, symSize: 0x90 }
  - { offset: 0x56976, size: 0x8, addend: 0x0, symName: __ZSt18__allocate_guardedISaISt10_List_nodeIP4CardEEESt15__allocated_ptrIT_ERS6_, symObjAddr: 0x1E3C, symBinAddr: 0x10001BD50, symSize: 0xE0 }
  - { offset: 0x56A54, size: 0x8, addend: 0x0, symName: __ZN9__gnu_cxx16__aligned_membufIP4CardE7_M_addrEv, symObjAddr: 0x181C, symBinAddr: 0x10001BD3C, symSize: 0x14 }
  - { offset: 0x56A7E, size: 0x8, addend: 0x0, symName: __ZNSt15__allocated_ptrISaISt10_List_nodeIP4CardEEE7releaseEv, symObjAddr: 0x17F4, symBinAddr: 0x10001BD14, symSize: 0x28 }
  - { offset: 0x56AF0, size: 0x8, addend: 0x0, symName: __ZNKSt15__allocated_objISaISt10_List_nodeIP4CardEEEptEv, symObjAddr: 0x17D8, symBinAddr: 0x10001BCF8, symSize: 0x1C }
  - { offset: 0x56B34, size: 0x8, addend: 0x0, symName: __ZNSt15__allocated_objISaISt10_List_nodeIP4CardEEED1Ev, symObjAddr: 0x179C, symBinAddr: 0x10001BCBC, symSize: 0x3C }
  - { offset: 0x56B56, size: 0x8, addend: 0x0, symName: __ZSt22__allocate_guarded_objISaISt10_List_nodeIP4CardEEESt15__allocated_objIT_ERS6_, symObjAddr: 0x1734, symBinAddr: 0x10001BC54, symSize: 0x68 }
  - { offset: 0x56B8C, size: 0x8, addend: 0x0, symName: __ZNSt7__cxx1110_List_baseIP4CardSaIS2_EE21_M_get_Node_allocatorEv, symObjAddr: 0x1720, symBinAddr: 0x10001BC40, symSize: 0x14 }
  - { offset: 0x56BB6, size: 0x8, addend: 0x0, symName: __ZNSt7__cxx1110_List_baseIP4CardSaIS2_EE11_M_put_nodeEPSt10_List_nodeIS2_E, symObjAddr: 0x16A4, symBinAddr: 0x10001BBC4, symSize: 0x7C }
  - { offset: 0x56CA3, size: 0x8, addend: 0x0, symName: __ZN9__gnu_cxx16__aligned_membufIP4CardE6_M_ptrEv, symObjAddr: 0x1090, symBinAddr: 0x10001BBA8, symSize: 0x1C }
  - { offset: 0x56CCD, size: 0x8, addend: 0x0, symName: __ZNSt7__cxx1110_List_baseIP4CardSaIS2_EE11_M_inc_sizeEm, symObjAddr: 0x1060, symBinAddr: 0x10001BB78, symSize: 0x30 }
  - { offset: 0x56D08, size: 0x8, addend: 0x0, symName: __ZNSt7__cxx114listIP4CardSaIS2_EE14_M_create_nodeIJRKS2_EEEPSt10_List_nodeIS2_EDpOT_, symObjAddr: 0xFA8, symBinAddr: 0x10001BAC0, symSize: 0xB8 }
  - { offset: 0x56E17, size: 0x8, addend: 0x0, symName: __ZNSt10_List_nodeIP4CardE11_M_node_ptrEv, symObjAddr: 0xF94, symBinAddr: 0x10001BAAC, symSize: 0x14 }
  - { offset: 0x56E41, size: 0x8, addend: 0x0, symName: __ZNSt7__cxx1110_List_baseIP4CardSaIS2_EE15_M_destroy_nodeEPSt10_List_nodeIS2_E, symObjAddr: 0xF44, symBinAddr: 0x10001BA5C, symSize: 0x50 }
  - { offset: 0x56EBF, size: 0x8, addend: 0x0, symName: __ZNSt10_List_nodeIP4CardE9_M_valptrEv, symObjAddr: 0xC50, symBinAddr: 0x10001BA3C, symSize: 0x20 }
  - { offset: 0x56F11, size: 0x8, addend: 0x0, symName: __ZNSt14_List_iteratorIP4CardEC1EPNSt8__detail15_List_node_baseE, symObjAddr: 0xC2C, symBinAddr: 0x10001BA18, symSize: 0x24 }
  - { offset: 0x56F40, size: 0x8, addend: 0x0, symName: __ZNSt7__cxx114listIP4CardSaIS2_EE9_M_insertIJRKS2_EEEvSt14_List_iteratorIS2_EDpOT_, symObjAddr: 0xBD8, symBinAddr: 0x10001B9C4, symSize: 0x54 }
  - { offset: 0x56FCF, size: 0x8, addend: 0x0, symName: __ZNSt7__cxx1110_List_baseIP4CardSaIS2_EE8_M_clearEv, symObjAddr: 0xB5C, symBinAddr: 0x10001B948, symSize: 0x7C }
  - { offset: 0x57054, size: 0x8, addend: 0x0, symName: __ZNKSt7__cxx114listIP4CardSaIS2_EE5emptyEv, symObjAddr: 0xB24, symBinAddr: 0x10001B910, symSize: 0x38 }
  - { offset: 0x5707E, size: 0x8, addend: 0x0, symName: __ZNKSt14_List_iteratorIP4CardEdeEv, symObjAddr: 0x8E8, symBinAddr: 0x10001B8F0, symSize: 0x20 }
  - { offset: 0x570A8, size: 0x8, addend: 0x0, symName: __ZNSt14_List_iteratorIP4CardEppEv, symObjAddr: 0x8C0, symBinAddr: 0x10001B8C8, symSize: 0x28 }
  - { offset: 0x570D4, size: 0x8, addend: 0x0, symName: __ZSteqRKSt14_List_iteratorIP4CardES4_, symObjAddr: 0x890, symBinAddr: 0x10001B898, symSize: 0x30 }
  - { offset: 0x57113, size: 0x8, addend: 0x0, symName: __ZNSt7__cxx114listIP4CardSaIS2_EE3endEv, symObjAddr: 0x864, symBinAddr: 0x10001B86C, symSize: 0x2C }
  - { offset: 0x5713D, size: 0x8, addend: 0x0, symName: __ZNSt7__cxx114listIP4CardSaIS2_EE5beginEv, symObjAddr: 0x83C, symBinAddr: 0x10001B844, symSize: 0x28 }
  - { offset: 0x57167, size: 0x8, addend: 0x0, symName: __ZNSt7__cxx114listIP4CardSaIS2_EE9push_backERKS2_, symObjAddr: 0x808, symBinAddr: 0x10001B810, symSize: 0x34 }
  - { offset: 0x571BC, size: 0x8, addend: 0x0, symName: __ZNSt7__cxx1110_List_baseIP4CardSaIS2_EED2Ev, symObjAddr: 0x7E0, symBinAddr: 0x10001B7E8, symSize: 0x28 }
  - { offset: 0x57212, size: 0x8, addend: 0x0, symName: __ZNSt7__cxx1110_List_baseIP4CardSaIS2_EE10_List_implC1Ev, symObjAddr: 0x7A8, symBinAddr: 0x10001B7B0, symSize: 0x38 }
  - { offset: 0x572CA, size: 0x8, addend: 0x0, symName: __ZN10PlayerDeckD1Ev, symObjAddr: 0x714, symBinAddr: 0x10001B71C, symSize: 0x94 }
  - { offset: 0x5734E, size: 0x8, addend: 0x0, symName: __ZN10PlayerDeckD2Ev, symObjAddr: 0x680, symBinAddr: 0x10001B688, symSize: 0x94 }
  - { offset: 0x573D1, size: 0x8, addend: 0x0, symName: __ZN10PlayerDeck5emptyEv, symObjAddr: 0x664, symBinAddr: 0x10001B66C, symSize: 0x1C }
  - { offset: 0x573FE, size: 0x8, addend: 0x0, symName: __ZN10PlayerDeck13printPlayableESt3mapIiP4CardSt4lessIiESaISt4pairIKiS2_EEE, symObjAddr: 0x570, symBinAddr: 0x10001B578, symSize: 0xF4 }
  - { offset: 0x574AD, size: 0x8, addend: 0x0, symName: __ZN10PlayerDeck15filter_playableER11DiscardPile, symObjAddr: 0x414, symBinAddr: 0x10001B4A0, symSize: 0xD8 }
  - { offset: 0x57564, size: 0x8, addend: 0x0, symName: __ZN10PlayerDeck6removeEm, symObjAddr: 0x2F4, symBinAddr: 0x10001B400, symSize: 0xA0 }
  - { offset: 0x575FB, size: 0x8, addend: 0x0, symName: __ZN10PlayerDeck5printEv, symObjAddr: 0x274, symBinAddr: 0x10001B380, symSize: 0x80 }
  - { offset: 0x57672, size: 0x8, addend: 0x0, symName: __ZN10PlayerDeck3addEP4Card, symObjAddr: 0x24C, symBinAddr: 0x10001B358, symSize: 0x28 }
  - { offset: 0x576AF, size: 0x8, addend: 0x0, symName: __ZN10PlayerDeck12initial_fillER8DrawDeck, symObjAddr: 0x1E8, symBinAddr: 0x10001B2F4, symSize: 0x64 }
  - { offset: 0x5775C, size: 0x8, addend: 0x0, symName: __ZN10PlayerDeckC1Ev, symObjAddr: 0x1C8, symBinAddr: 0x10001B2D4, symSize: 0x20 }
  - { offset: 0x57786, size: 0x8, addend: 0x0, symName: __ZN10PlayerDeckC2Ev, symObjAddr: 0x1A8, symBinAddr: 0x10001B2B4, symSize: 0x20 }
  - { offset: 0x577C6, size: 0x8, addend: 0x0, symName: __ZNSt7__cxx114listIP4CardSaIS2_EED1Ev, symObjAddr: 0x188, symBinAddr: 0x10001B294, symSize: 0x20 }
  - { offset: 0x57806, size: 0x8, addend: 0x0, symName: __ZNSt7__cxx114listIP4CardSaIS2_EEC1Ev, symObjAddr: 0x168, symBinAddr: 0x10001B274, symSize: 0x20 }
  - { offset: 0x57846, size: 0x8, addend: 0x0, symName: __ZNSt7__cxx1110_List_baseIP4CardSaIS2_EEC2Ev, symObjAddr: 0x148, symBinAddr: 0x10001B254, symSize: 0x20 }
  - { offset: 0x5788A, size: 0x8, addend: 0x0, symName: __ZNSt7__cxx1110_List_baseIP4CardSaIS2_EE10_List_implD1Ev, symObjAddr: 0x128, symBinAddr: 0x10001B234, symSize: 0x20 }
  - { offset: 0x578D4, size: 0x8, addend: 0x0, symName: __ZNSt8__detail17_List_node_header7_M_baseEv, symObjAddr: 0x9C, symBinAddr: 0x10001B220, symSize: 0x14 }
  - { offset: 0x578FE, size: 0x8, addend: 0x0, symName: __ZNSt8__detail17_List_node_header7_M_initEv, symObjAddr: 0x64, symBinAddr: 0x10001B1E8, symSize: 0x38 }
  - { offset: 0x57942, size: 0x8, addend: 0x0, symName: __ZNSt8__detail17_List_node_headerC1Ev, symObjAddr: 0x44, symBinAddr: 0x10001B1C8, symSize: 0x20 }
  - { offset: 0x57968, size: 0x8, addend: 0x0, symName: __ZNKSt8__detail15_List_node_base7_M_baseEv, symObjAddr: 0x30, symBinAddr: 0x10001B1B4, symSize: 0x14 }
  - { offset: 0x5DE61, size: 0x8, addend: 0x0, symName: __ZStL8__ioinit, symObjAddr: 0x34338, symBinAddr: 0x100038002, symSize: 0x0 }
  - { offset: 0x5E102, size: 0x8, addend: 0x0, symName: __ZN8PlayLoopD1Ev, symObjAddr: 0x6DC, symBinAddr: 0x10001C8A4, symSize: 0x3C }
  - { offset: 0x5E12C, size: 0x8, addend: 0x0, symName: __ZN8PlayLoopD2Ev, symObjAddr: 0x6A0, symBinAddr: 0x10001C868, symSize: 0x3C }
  - { offset: 0x5E155, size: 0x8, addend: 0x0, symName: __ZN8PlayLoop13CurrentPlayerEv, symObjAddr: 0x684, symBinAddr: 0x10001C84C, symSize: 0x1C }
  - { offset: 0x5E182, size: 0x8, addend: 0x0, symName: __ZN8PlayLoop12GetHumanNodeEv, symObjAddr: 0x66C, symBinAddr: 0x10001C834, symSize: 0x18 }
  - { offset: 0x5E1AF, size: 0x8, addend: 0x0, symName: __ZN8PlayLoop7advanceEv, symObjAddr: 0x644, symBinAddr: 0x10001C80C, symSize: 0x28 }
  - { offset: 0x5E1DC, size: 0x8, addend: 0x0, symName: __ZN8PlayLoop18CurrentPlayerEmptyEv, symObjAddr: 0x620, symBinAddr: 0x10001C7E8, symSize: 0x24 }
  - { offset: 0x5E209, size: 0x8, addend: 0x0, symName: __ZN8PlayLoop12destroyHumanEv, symObjAddr: 0x5AC, symBinAddr: 0x10001C774, symSize: 0x74 }
  - { offset: 0x5E236, size: 0x8, addend: 0x0, symName: __ZN8PlayLoop11destroyCPUsEv, symObjAddr: 0x508, symBinAddr: 0x10001C6D0, symSize: 0xA4 }
  - { offset: 0x5E32A, size: 0x8, addend: 0x0, symName: __ZN8PlayLoopC1EiR8DrawDeck, symObjAddr: 0x308, symBinAddr: 0x10001C4D0, symSize: 0x200 }
  - { offset: 0x5E3E5, size: 0x8, addend: 0x0, symName: __ZN8PlayLoopC2EiR8DrawDeck, symObjAddr: 0x108, symBinAddr: 0x10001C2D0, symSize: 0x200 }
  - { offset: 0x5E4B9, size: 0x8, addend: 0x0, symName: __ZN3CPUC1Ev, symObjAddr: 0xCC, symBinAddr: 0x10001C294, symSize: 0x3C }
  - { offset: 0x5E4FC, size: 0x8, addend: 0x0, symName: __ZN5HumanC1Ev, symObjAddr: 0x98, symBinAddr: 0x10001C260, symSize: 0x34 }
  - { offset: 0x5E53F, size: 0x8, addend: 0x0, symName: __ZN6PlayerD1Ev, symObjAddr: 0x54, symBinAddr: 0x10001C21C, symSize: 0x44 }
  - { offset: 0x5E58C, size: 0x8, addend: 0x0, symName: __ZN8PlayLoop4NodeC1EP6Player, symObjAddr: 0x0, symBinAddr: 0x10001C1E8, symSize: 0x34 }
  - { offset: 0x6636A, size: 0x8, addend: 0x0, symName: __ZStL8__ioinit, symObjAddr: 0x44370, symBinAddr: 0x100038003, symSize: 0x0 }
  - { offset: 0x66559, size: 0x8, addend: 0x0, symName: __ZNSt23_Rb_tree_const_iteratorISt4pairIKiP4CardEEC1EPSt18_Rb_tree_node_base, symObjAddr: 0x9DC, symBinAddr: 0x10001D18C, symSize: 0x24 }
  - { offset: 0x6658A, size: 0x8, addend: 0x0, symName: __ZSteqRKSt23_Rb_tree_const_iteratorISt4pairIKiP4CardEES7_, symObjAddr: 0x8E4, symBinAddr: 0x10001D15C, symSize: 0x30 }
  - { offset: 0x665C9, size: 0x8, addend: 0x0, symName: __ZNKSt8_Rb_treeIiSt4pairIKiP4CardESt10_Select1stIS4_ESt4lessIiESaIS4_EE3endEv, symObjAddr: 0x8B8, symBinAddr: 0x10001D130, symSize: 0x2C }
  - { offset: 0x665F3, size: 0x8, addend: 0x0, symName: __ZNKSt8_Rb_treeIiSt4pairIKiP4CardESt10_Select1stIS4_ESt4lessIiESaIS4_EE4findERS1_, symObjAddr: 0x808, symBinAddr: 0x10001D080, symSize: 0xB0 }
  - { offset: 0x6663F, size: 0x8, addend: 0x0, symName: __ZNKSt3mapIiP4CardSt4lessIiESaISt4pairIKiS1_EEE5countERS5_, symObjAddr: 0x784, symBinAddr: 0x10001D028, symSize: 0x58 }
  - { offset: 0x6667C, size: 0x8, addend: 0x0, symName: __ZN7UNOGame9StartGameEv, symObjAddr: 0x6E0, symBinAddr: 0x10001CFBC, symSize: 0x6C }
  - { offset: 0x666B9, size: 0x8, addend: 0x0, symName: __ZN7UNOGame20printRulesAndConfirmEv, symObjAddr: 0x680, symBinAddr: 0x10001CF5C, symSize: 0x60 }
  - { offset: 0x666F5, size: 0x8, addend: 0x0, symName: __ZN7UNOGame8GameLoopEv, symObjAddr: 0x5F0, symBinAddr: 0x10001CECC, symSize: 0x90 }
  - { offset: 0x66721, size: 0x8, addend: 0x0, symName: __ZN7UNOGame11CPUSequenceEv, symObjAddr: 0x554, symBinAddr: 0x10001CE30, symSize: 0x9C }
  - { offset: 0x6676D, size: 0x8, addend: 0x0, symName: __ZN7UNOGame14playerSequenceEv, symObjAddr: 0x440, symBinAddr: 0x10001CD1C, symSize: 0x114 }
  - { offset: 0x667CD, size: 0x8, addend: 0x0, symName: __ZN7UNOGame13printPlayableEv, symObjAddr: 0x3E8, symBinAddr: 0x10001CCC4, symSize: 0x58 }
  - { offset: 0x6680A, size: 0x8, addend: 0x0, symName: __ZN7UNOGame13PlayerAddCardEv, symObjAddr: 0x33C, symBinAddr: 0x10001CC18, symSize: 0xAC }
  - { offset: 0x6685D, size: 0x8, addend: 0x0, symName: __ZN7UNOGame9StartMenuEv, symObjAddr: 0x308, symBinAddr: 0x10001CBE4, symSize: 0x34 }
  - { offset: 0x6689A, size: 0x8, addend: 0x0, symName: __ZN7UNOGame14printStartMenuEv, symObjAddr: 0x2D0, symBinAddr: 0x10001CBAC, symSize: 0x38 }
  - { offset: 0x668C7, size: 0x8, addend: 0x0, symName: __ZN7UNOGame12safeInputIntEii, symObjAddr: 0x1AC, symBinAddr: 0x10001CA88, symSize: 0x124 }
  - { offset: 0x6694A, size: 0x8, addend: 0x0, symName: __ZN7UNOGameC1Ei, symObjAddr: 0x114, symBinAddr: 0x10001C9F0, symSize: 0x98 }
  - { offset: 0x6697D, size: 0x8, addend: 0x0, symName: __ZN7UNOGameC2Ei, symObjAddr: 0x7C, symBinAddr: 0x10001C958, symSize: 0x98 }
  - { offset: 0x669C9, size: 0x8, addend: 0x0, symName: __ZN11DiscardPileC1Ev, symObjAddr: 0x5C, symBinAddr: 0x10001C938, symSize: 0x20 }
  - { offset: 0x669EB, size: 0x8, addend: 0x0, symName: __ZNSt14numeric_limitsIlE3maxEv, symObjAddr: 0x14, symBinAddr: 0x10001C930, symSize: 0x8 }
  - { offset: 0x66A18, size: 0x8, addend: 0x0, symName: __ZN7UNOGameD1Ev, symObjAddr: 0x0, symBinAddr: 0x10001D200, symSize: 0x38 }
  - { offset: 0x6CAAD, size: 0x8, addend: 0x0, symName: _main, symObjAddr: 0x38, symBinAddr: 0x10001D238, symSize: 0x50 }
  - { offset: 0x6CAF8, size: 0x8, addend: 0x0, symName: __ZN7UNOGameD1Ev, symObjAddr: 0x0, symBinAddr: 0x10001D200, symSize: 0x38 }
  - { offset: 0x6CB2F, size: 0x8, addend: 0x0, symName: ___udivti3, symObjAddr: 0x0, symBinAddr: 0x10001D2A0, symSize: 0x344 }
  - { offset: 0x6CC95, size: 0x8, addend: 0x0, symName: ___udivti3, symObjAddr: 0x0, symBinAddr: 0x10001D2A0, symSize: 0x344 }
  - { offset: 0x6CCD1, size: 0x8, addend: 0x0, symName: ___udivti3, symObjAddr: 0x0, symBinAddr: 0x10001D2A0, symSize: 0x344 }
  - { offset: 0x6D298, size: 0x8, addend: 0x0, symName: ___umodti3, symObjAddr: 0x0, symBinAddr: 0x10001D600, symSize: 0x33C }
  - { offset: 0x6D3FE, size: 0x8, addend: 0x0, symName: ___umodti3, symObjAddr: 0x0, symBinAddr: 0x10001D600, symSize: 0x33C }
  - { offset: 0x6D448, size: 0x8, addend: 0x0, symName: ___umodti3, symObjAddr: 0x0, symBinAddr: 0x10001D600, symSize: 0x33C }
...
